(lp0
ccopy_reg
_reconstructor
p1
(cpandas.core.frame
DataFrame
p2
c__builtin__
object
p3
Ntp4
Rp5
(dp6
S'_metadata'
p7
(lp8
sS'_typ'
p9
S'dataframe'
p10
sS'_data'
p11
g1
(cpandas.core.internals
BlockManager
p12
g3
Ntp13
Rp14
((lp15
cpandas.indexes.base
_new_Index
p16
(cpandas.indexes.base
Index
p17
(dp18
S'data'
p19
cnumpy.core.multiarray
_reconstruct
p20
(cnumpy
ndarray
p21
(I0
tp22
S'b'
p23
tp24
Rp25
(I1
(L6L
tp26
cnumpy
dtype
p27
(S'O8'
p28
I0
I1
tp29
Rp30
(I3
S'|'
p31
NNNI-1
I-1
I63
tp32
bI00
(lp33
S'id'
p34
aS'fail'
p35
aS'timestamp'
p36
aS'logs'
p37
aS'idl'
p38
aS'cluster'
p39
atp40
bsS'name'
p41
Nstp42
Rp43
ag16
(g17
(dp44
g19
g20
(g21
(I0
tp45
g23
tp46
Rp47
(I1
(L3L
tp48
g30
I00
(lp49
S'184238'
p50
aS'184248'
p51
aS'184251'
p52
atp53
bsg41
Nstp54
Rp55
a(lp56
g20
(g21
(I0
tp57
g23
tp58
Rp59
(I1
(L1L
L3L
tp60
g27
(S'f8'
p61
I0
I1
tp62
Rp63
(I3
S'<'
p64
NNNI-1
I-1
I0
tp65
bI00
S'\x00\x00\x00\x00\x00\x00\xf0?\x00\x00\x00\x00\x00\x00\xf0?\x00\x00\x00\x00\x00\x00\xf0?'
p66
tp67
bag20
(g21
(I0
tp68
g23
tp69
Rp70
(I1
(L1L
L3L
tp71
g27
(S'i8'
p72
I0
I1
tp73
Rp74
(I3
S'<'
p75
NNNI-1
I-1
I0
tp76
bI00
S'\x02\x00\x00\x00\x00\x00\x00\x00\x02\x00\x00\x00\x00\x00\x00\x00\x02\x00\x00\x00\x00\x00\x00\x00'
p77
tp78
bag20
(g21
(I0
tp79
g23
tp80
Rp81
(I1
(L4L
L3L
tp82
g30
I00
(lp83
S'AVQD9fmvePvB1HupEiKf_4238'
p84
aS'AVQD9fmvePvB1HupEiKf_4248'
p85
aS'AVQD9fmvePvB1HupEiKf_4251'
p86
aS'2016-04-11T09:14:24+0300'
p87
ag87
ag87
aV[INFO] mqm-ps-schema-management-impl ..................... SKIPPED
p88
aV[INFO] mqm-bl-platform-br-plugin-api ..................... SKIPPED
p89
aV[INFO] mqm-ps-platform-services-impl ..................... SKIPPED
p90
aS'AVQD9fmvePvB1HupEiKf'
p91
aS'AVQD9fmvePvB1HupEiKf'
p92
aS'AVQD9fmvePvB1HupEiKf'
p93
atp94
ba(lp95
g16
(g17
(dp96
g19
g20
(g21
(I0
tp97
g23
tp98
Rp99
(I1
(L1L
tp100
g30
I00
(lp101
g35
atp102
bsg41
Nstp103
Rp104
ag16
(g17
(dp105
g19
g20
(g21
(I0
tp106
g23
tp107
Rp108
(I1
(L1L
tp109
g30
I00
(lp110
g39
atp111
bsg41
Nstp112
Rp113
ag16
(g17
(dp114
g19
g20
(g21
(I0
tp115
g23
tp116
Rp117
(I1
(L4L
tp118
g30
I00
(lp119
g34
ag36
ag37
ag38
atp120
bsg41
Nstp121
Rp122
a(dp123
S'0.14.1'
p124
(dp125
S'axes'
p126
g15
sS'blocks'
p127
(lp128
(dp129
S'mgr_locs'
p130
c__builtin__
slice
p131
(I1
I2
I1
tp132
Rp133
sS'values'
p134
g59
sa(dp135
g130
g131
(I5
I6
I1
tp136
Rp137
sg134
g70
sa(dp138
g130
g20
(g21
(I0
tp139
g23
tp140
Rp141
(I1
(L4L
tp142
g74
I00
S'\x00\x00\x00\x00\x00\x00\x00\x00\x02\x00\x00\x00\x00\x00\x00\x00\x03\x00\x00\x00\x00\x00\x00\x00\x04\x00\x00\x00\x00\x00\x00\x00'
p143
tp144
bsg134
g81
sasstp145
bsbag1
(g2
g3
Ntp146
Rp147
(dp148
g7
g8
sg9
g10
sg11
g1
(g12
g3
Ntp149
Rp150
((lp151
g43
ag16
(g17
(dp152
g19
g20
(g21
(I0
tp153
g23
tp154
Rp155
(I1
(L4L
tp156
g30
I00
(lp157
S'184169'
p158
aS'184215'
p159
aS'184223'
p160
aS'184301'
p161
atp162
bsg41
Nstp163
Rp164
a(lp165
g20
(g21
(I0
tp166
g23
tp167
Rp168
(I1
(L1L
L4L
tp169
g63
I00
S'\x00\x00\x00\x00\x00\x00\xf0?\x00\x00\x00\x00\x00\x00\xf0?\x00\x00\x00\x00\x00\x00\xf0?\x00\x00\x00\x00\x00\x00\xf0?'
p170
tp171
bag20
(g21
(I0
tp172
g23
tp173
Rp174
(I1
(L1L
L4L
tp175
g74
I00
S'\x18\x01\x00\x00\x00\x00\x00\x00\x18\x01\x00\x00\x00\x00\x00\x00\x18\x01\x00\x00\x00\x00\x00\x00\x18\x01\x00\x00\x00\x00\x00\x00'
p176
tp177
bag20
(g21
(I0
tp178
g23
tp179
Rp180
(I1
(L4L
L4L
tp181
g30
I00
(lp182
S'AVQD9fmvePvB1HupEiKf_4169'
p183
aS'AVQD9fmvePvB1HupEiKf_4215'
p184
aS'AVQD9fmvePvB1HupEiKf_4223'
p185
aS'AVQD9fmvePvB1HupEiKf_4301'
p186
ag87
ag87
ag87
ag87
aV[INFO] mqm-infra-services-api ............................ SKIPPED
p187
aV[INFO] mqm-pa-mapper-test-api ............................ SKIPPED
p188
aV[INFO] mqm-elastic-infra-impl ............................ SKIPPED
p189
aV[INFO] ui-automation-services ............................ SKIPPED
p190
aS'AVQD9fmvePvB1HupEiKf'
p191
aS'AVQD9fmvePvB1HupEiKf'
p192
aS'AVQD9fmvePvB1HupEiKf'
p193
aS'AVQD9fmvePvB1HupEiKf'
p194
atp195
ba(lp196
g16
(g17
(dp197
g19
g20
(g21
(I0
tp198
g23
tp199
Rp200
(I1
(L1L
tp201
g30
I00
(lp202
g35
atp203
bsg41
Nstp204
Rp205
ag16
(g17
(dp206
g19
g20
(g21
(I0
tp207
g23
tp208
Rp209
(I1
(L1L
tp210
g30
I00
(lp211
g39
atp212
bsg41
Nstp213
Rp214
ag16
(g17
(dp215
g19
g20
(g21
(I0
tp216
g23
tp217
Rp218
(I1
(L4L
tp219
g30
I00
(lp220
g34
ag36
ag37
ag38
atp221
bsg41
Nstp222
Rp223
a(dp224
g124
(dp225
g126
g151
sg127
(lp226
(dp227
g130
g133
sg134
g168
sa(dp228
g130
g137
sg134
g174
sa(dp229
g130
g141
sg134
g180
sasstp230
bsbag1
(g2
g3
Ntp231
Rp232
(dp233
g7
g8
sg9
g10
sg11
g1
(g12
g3
Ntp234
Rp235
((lp236
g43
ag16
(g17
(dp237
g19
g20
(g21
(I0
tp238
g23
tp239
Rp240
(I1
(L5L
tp241
g30
I00
(lp242
S'184188'
p243
aS'184207'
p244
aS'184222'
p245
aS'184280'
p246
aS'184284'
p247
atp248
bsg41
Nstp249
Rp250
a(lp251
g20
(g21
(I0
tp252
g23
tp253
Rp254
(I1
(L1L
L5L
tp255
g63
I00
S'\x00\x00\x00\x00\x00\x00\xf0?\x00\x00\x00\x00\x00\x00\xf0?\x00\x00\x00\x00\x00\x00\xf0?\x00\x00\x00\x00\x00\x00\xf0?\x00\x00\x00\x00\x00\x00\xf0?'
p256
tp257
bag20
(g21
(I0
tp258
g23
tp259
Rp260
(I1
(L1L
L5L
tp261
g74
I00
S'u\x02\x00\x00\x00\x00\x00\x00u\x02\x00\x00\x00\x00\x00\x00u\x02\x00\x00\x00\x00\x00\x00u\x02\x00\x00\x00\x00\x00\x00u\x02\x00\x00\x00\x00\x00\x00'
p262
tp263
bag20
(g21
(I0
tp264
g23
tp265
Rp266
(I1
(L4L
L5L
tp267
g30
I00
(lp268
S'AVQD9fmvePvB1HupEiKf_4188'
p269
aS'AVQD9fmvePvB1HupEiKf_4207'
p270
aS'AVQD9fmvePvB1HupEiKf_4222'
p271
aS'AVQD9fmvePvB1HupEiKf_4280'
p272
aS'AVQD9fmvePvB1HupEiKf_4284'
p273
ag87
ag87
ag87
ag87
ag87
aV[INFO] mqm-distributed-cache-api ......................... SKIPPED
p274
aV[INFO] mqm-ps-business-rules-api ......................... SKIPPED
p275
aV[INFO] mqm-query-translation-api ......................... SKIPPED
p276
aV[INFO] mqm-generate-entities-api ......................... SKIPPED
p277
aV[INFO] mqm-schema-resources-impl ......................... SKIPPED
p278
aS'AVQD9fmvePvB1HupEiKf'
p279
aS'AVQD9fmvePvB1HupEiKf'
p280
aS'AVQD9fmvePvB1HupEiKf'
p281
aS'AVQD9fmvePvB1HupEiKf'
p282
aS'AVQD9fmvePvB1HupEiKf'
p283
atp284
ba(lp285
g16
(g17
(dp286
g19
g20
(g21
(I0
tp287
g23
tp288
Rp289
(I1
(L1L
tp290
g30
I00
(lp291
g35
atp292
bsg41
Nstp293
Rp294
ag16
(g17
(dp295
g19
g20
(g21
(I0
tp296
g23
tp297
Rp298
(I1
(L1L
tp299
g30
I00
(lp300
g39
atp301
bsg41
Nstp302
Rp303
ag16
(g17
(dp304
g19
g20
(g21
(I0
tp305
g23
tp306
Rp307
(I1
(L4L
tp308
g30
I00
(lp309
g34
ag36
ag37
ag38
atp310
bsg41
Nstp311
Rp312
a(dp313
g124
(dp314
g126
g236
sg127
(lp315
(dp316
g130
g133
sg134
g254
sa(dp317
g130
g137
sg134
g260
sa(dp318
g130
g141
sg134
g266
sasstp319
bsbag1
(g2
g3
Ntp320
Rp321
(dp322
g7
g8
sg9
g10
sg11
g1
(g12
g3
Ntp323
Rp324
((lp325
g43
ag16
(g17
(dp326
g19
g20
(g21
(I0
tp327
g23
tp328
Rp329
(I1
(L2L
tp330
g30
I00
(lp331
S'183976'
p332
aS'184042'
p333
atp334
bsg41
Nstp335
Rp336
a(lp337
g20
(g21
(I0
tp338
g23
tp339
Rp340
(I1
(L1L
L2L
tp341
g63
I00
S'\x00\x00\x00\x00\x00\x00\xf0?\x00\x00\x00\x00\x00\x00\xf0?'
p342
tp343
bag20
(g21
(I0
tp344
g23
tp345
Rp346
(I1
(L1L
L2L
tp347
g74
I00
S'\xd8\x02\x00\x00\x00\x00\x00\x00\xd8\x02\x00\x00\x00\x00\x00\x00'
p348
tp349
bag20
(g21
(I0
tp350
g23
tp351
Rp352
(I1
(L4L
L2L
tp353
g30
I00
(lp354
S'AVQD9fmvePvB1HupEiKf_3976'
p355
aS'AVQD9fmvePvB1HupEiKf_4042'
p356
ag87
ag87
aVDownloaded: http://mydtbld0051.hpeswlab.net:8081/nexus/content/groups/mqm-public/org/ow2/asm/asm/5.0.3/asm-5.0.3.jar (52 KB at 3465.6 KB/sec)
p357
aVDownloaded: http://mydtbld0051.hpeswlab.net:8081/nexus/content/groups/mqm-public/org/ow2/asm/asm/5.0.3/asm-5.0.3.jar (52 KB at 3249.0 KB/sec)
p358
aS'AVQD9fmvePvB1HupEiKf'
p359
aS'AVQD9fmvePvB1HupEiKf'
p360
atp361
ba(lp362
g16
(g17
(dp363
g19
g20
(g21
(I0
tp364
g23
tp365
Rp366
(I1
(L1L
tp367
g30
I00
(lp368
g35
atp369
bsg41
Nstp370
Rp371
ag16
(g17
(dp372
g19
g20
(g21
(I0
tp373
g23
tp374
Rp375
(I1
(L1L
tp376
g30
I00
(lp377
g39
atp378
bsg41
Nstp379
Rp380
ag16
(g17
(dp381
g19
g20
(g21
(I0
tp382
g23
tp383
Rp384
(I1
(L4L
tp385
g30
I00
(lp386
g34
ag36
ag37
ag38
atp387
bsg41
Nstp388
Rp389
a(dp390
g124
(dp391
g126
g325
sg127
(lp392
(dp393
g130
g133
sg134
g340
sa(dp394
g130
g137
sg134
g346
sa(dp395
g130
g141
sg134
g352
sasstp396
bsbag1
(g2
g3
Ntp397
Rp398
(dp399
g7
g8
sg9
g10
sg11
g1
(g12
g3
Ntp400
Rp401
((lp402
g43
ag16
(g17
(dp403
g19
g20
(g21
(I0
tp404
g23
tp405
Rp406
(I1
(L2L
tp407
g30
I00
(lp408
S'184163'
p409
aS'184260'
p410
atp411
bsg41
Nstp412
Rp413
a(lp414
g20
(g21
(I0
tp415
g23
tp416
Rp417
(I1
(L1L
L2L
tp418
g63
I00
S'\x00\x00\x00\x00\x00\x00\xf0?\x00\x00\x00\x00\x00\x00\xf0?'
p419
tp420
bag20
(g21
(I0
tp421
g23
tp422
Rp423
(I1
(L1L
L2L
tp424
g74
I00
S'\xeb\x02\x00\x00\x00\x00\x00\x00\xeb\x02\x00\x00\x00\x00\x00\x00'
p425
tp426
bag20
(g21
(I0
tp427
g23
tp428
Rp429
(I1
(L4L
L2L
tp430
g30
I00
(lp431
S'AVQD9fmvePvB1HupEiKf_4163'
p432
aS'AVQD9fmvePvB1HupEiKf_4260'
p433
ag87
ag87
aV[INFO] mqm-storage-api ................................... SKIPPED
p434
aV[INFO] mqm-search-impl ................................... SKIPPED
p435
aS'AVQD9fmvePvB1HupEiKf'
p436
aS'AVQD9fmvePvB1HupEiKf'
p437
atp438
ba(lp439
g16
(g17
(dp440
g19
g20
(g21
(I0
tp441
g23
tp442
Rp443
(I1
(L1L
tp444
g30
I00
(lp445
g35
atp446
bsg41
Nstp447
Rp448
ag16
(g17
(dp449
g19
g20
(g21
(I0
tp450
g23
tp451
Rp452
(I1
(L1L
tp453
g30
I00
(lp454
g39
atp455
bsg41
Nstp456
Rp457
ag16
(g17
(dp458
g19
g20
(g21
(I0
tp459
g23
tp460
Rp461
(I1
(L4L
tp462
g30
I00
(lp463
g34
ag36
ag37
ag38
atp464
bsg41
Nstp465
Rp466
a(dp467
g124
(dp468
g126
g402
sg127
(lp469
(dp470
g130
g133
sg134
g417
sa(dp471
g130
g137
sg134
g423
sa(dp472
g130
g141
sg134
g429
sasstp473
bsbag1
(g2
g3
Ntp474
Rp475
(dp476
g7
g8
sg9
g10
sg11
g1
(g12
g3
Ntp477
Rp478
((lp479
g43
ag16
(g17
(dp480
g19
g20
(g21
(I0
tp481
g23
tp482
Rp483
(I1
(L7L
tp484
g30
I00
(lp485
S'184167'
p486
aS'184186'
p487
aS'184216'
p488
aS'184240'
p489
aS'184252'
p490
aS'184277'
p491
aS'184304'
p492
atp493
bsg41
Nstp494
Rp495
a(lp496
g20
(g21
(I0
tp497
g23
tp498
Rp499
(I1
(L1L
L7L
tp500
g63
I00
S'\x00\x00\x00\x00\x00\x00\xf0?\x00\x00\x00\x00\x00\x00\xf0?\x00\x00\x00\x00\x00\x00\xf0?\x00\x00\x00\x00\x00\x00\xf0?\x00\x00\x00\x00\x00\x00\xf0?\x00\x00\x00\x00\x00\x00\xf0?\x00\x00\x00\x00\x00\x00\xf0?'
p501
tp502
bag20
(g21
(I0
tp503
g23
tp504
Rp505
(I1
(L1L
L7L
tp506
g74
I00
S'#\x03\x00\x00\x00\x00\x00\x00#\x03\x00\x00\x00\x00\x00\x00#\x03\x00\x00\x00\x00\x00\x00#\x03\x00\x00\x00\x00\x00\x00#\x03\x00\x00\x00\x00\x00\x00#\x03\x00\x00\x00\x00\x00\x00#\x03\x00\x00\x00\x00\x00\x00'
p507
tp508
bag20
(g21
(I0
tp509
g23
tp510
Rp511
(I1
(L4L
L7L
tp512
g30
I00
(lp513
S'AVQD9fmvePvB1HupEiKf_4167'
p514
aS'AVQD9fmvePvB1HupEiKf_4186'
p515
aS'AVQD9fmvePvB1HupEiKf_4216'
p516
aS'AVQD9fmvePvB1HupEiKf_4240'
p517
aS'AVQD9fmvePvB1HupEiKf_4252'
p518
aS'AVQD9fmvePvB1HupEiKf_4277'
p519
aS'AVQD9fmvePvB1HupEiKf_4304'
p520
ag87
ag87
ag87
ag87
ag87
ag87
ag87
aV[INFO] mqm-dal-db-infra-api .............................. SKIPPED
p521
aV[INFO] mqm-app-entities-api .............................. SKIPPED
p522
aV[INFO] mqm-ps-entities-impl .............................. SKIPPED
p523
aV[INFO] test-box-api-commons .............................. SKIPPED
p524
aV[INFO] mqm-bl-platform-impl .............................. SKIPPED
p525
aV[INFO] mqm-sbs-manager-impl .............................. SKIPPED
p526
aV[INFO] selenium-wrapper-api .............................. SKIPPED
p527
aS'AVQD9fmvePvB1HupEiKf'
p528
aS'AVQD9fmvePvB1HupEiKf'
p529
aS'AVQD9fmvePvB1HupEiKf'
p530
aS'AVQD9fmvePvB1HupEiKf'
p531
aS'AVQD9fmvePvB1HupEiKf'
p532
aS'AVQD9fmvePvB1HupEiKf'
p533
aS'AVQD9fmvePvB1HupEiKf'
p534
atp535
ba(lp536
g16
(g17
(dp537
g19
g20
(g21
(I0
tp538
g23
tp539
Rp540
(I1
(L1L
tp541
g30
I00
(lp542
g35
atp543
bsg41
Nstp544
Rp545
ag16
(g17
(dp546
g19
g20
(g21
(I0
tp547
g23
tp548
Rp549
(I1
(L1L
tp550
g30
I00
(lp551
g39
atp552
bsg41
Nstp553
Rp554
ag16
(g17
(dp555
g19
g20
(g21
(I0
tp556
g23
tp557
Rp558
(I1
(L4L
tp559
g30
I00
(lp560
g34
ag36
ag37
ag38
atp561
bsg41
Nstp562
Rp563
a(dp564
g124
(dp565
g126
g479
sg127
(lp566
(dp567
g130
g133
sg134
g499
sa(dp568
g130
g137
sg134
g505
sa(dp569
g130
g141
sg134
g511
sasstp570
bsbag1
(g2
g3
Ntp571
Rp572
(dp573
g7
g8
sg9
g10
sg11
g1
(g12
g3
Ntp574
Rp575
((lp576
g43
ag16
(g17
(dp577
g19
g20
(g21
(I0
tp578
g23
tp579
Rp580
(I1
(L2L
tp581
g30
I00
(lp582
S'183971'
p583
aS'184041'
p584
atp585
bsg41
Nstp586
Rp587
a(lp588
g20
(g21
(I0
tp589
g23
tp590
Rp591
(I1
(L1L
L2L
tp592
g63
I00
S'\x00\x00\x00\x00\x00\x00\xf0?\x00\x00\x00\x00\x00\x00\xf0?'
p593
tp594
bag20
(g21
(I0
tp595
g23
tp596
Rp597
(I1
(L1L
L2L
tp598
g74
I00
S')\x03\x00\x00\x00\x00\x00\x00)\x03\x00\x00\x00\x00\x00\x00'
p599
tp600
bag20
(g21
(I0
tp601
g23
tp602
Rp603
(I1
(L4L
L2L
tp604
g30
I00
(lp605
S'AVQD9fmvePvB1HupEiKf_3971'
p606
aS'AVQD9fmvePvB1HupEiKf_4041'
p607
ag87
ag87
aVDownloaded: http://mydtbld0051.hpeswlab.net:8081/nexus/content/groups/mqm-public/org/easymock/easymock/3.3.1/easymock-3.3.1.jar (124 KB at 7275.2 KB/sec)
p608
aVDownloaded: http://mydtbld0051.hpeswlab.net:8081/nexus/content/groups/mqm-public/org/easymock/easymock/3.3.1/easymock-3.3.1.jar (124 KB at 7729.9 KB/sec)
p609
aS'AVQD9fmvePvB1HupEiKf'
p610
aS'AVQD9fmvePvB1HupEiKf'
p611
atp612
ba(lp613
g16
(g17
(dp614
g19
g20
(g21
(I0
tp615
g23
tp616
Rp617
(I1
(L1L
tp618
g30
I00
(lp619
g35
atp620
bsg41
Nstp621
Rp622
ag16
(g17
(dp623
g19
g20
(g21
(I0
tp624
g23
tp625
Rp626
(I1
(L1L
tp627
g30
I00
(lp628
g39
atp629
bsg41
Nstp630
Rp631
ag16
(g17
(dp632
g19
g20
(g21
(I0
tp633
g23
tp634
Rp635
(I1
(L4L
tp636
g30
I00
(lp637
g34
ag36
ag37
ag38
atp638
bsg41
Nstp639
Rp640
a(dp641
g124
(dp642
g126
g576
sg127
(lp643
(dp644
g130
g133
sg134
g591
sa(dp645
g130
g137
sg134
g597
sa(dp646
g130
g141
sg134
g603
sasstp647
bsbag1
(g2
g3
Ntp648
Rp649
(dp650
g7
g8
sg9
g10
sg11
g1
(g12
g3
Ntp651
Rp652
((lp653
g43
ag16
(g17
(dp654
g19
g20
(g21
(I0
tp655
g23
tp656
Rp657
(I1
(L6L
tp658
g30
I00
(lp659
S'184245'
p660
aS'184276'
p661
aS'184292'
p662
aS'184294'
p663
aS'184303'
p664
aS'184312'
p665
atp666
bsg41
Nstp667
Rp668
a(lp669
g20
(g21
(I0
tp670
g23
tp671
Rp672
(I1
(L1L
L6L
tp673
g63
I00
S'\x00\x00\x00\x00\x00\x00\xf0?\x00\x00\x00\x00\x00\x00\xf0?\x00\x00\x00\x00\x00\x00\xf0?\x00\x00\x00\x00\x00\x00\xf0?\x00\x00\x00\x00\x00\x00\xf0?\x00\x00\x00\x00\x00\x00\xf0?'
p674
tp675
bag20
(g21
(I0
tp676
g23
tp677
Rp678
(I1
(L1L
L6L
tp679
g74
I00
S'R\x03\x00\x00\x00\x00\x00\x00R\x03\x00\x00\x00\x00\x00\x00R\x03\x00\x00\x00\x00\x00\x00R\x03\x00\x00\x00\x00\x00\x00R\x03\x00\x00\x00\x00\x00\x00R\x03\x00\x00\x00\x00\x00\x00'
p680
tp681
bag20
(g21
(I0
tp682
g23
tp683
Rp684
(I1
(L4L
L6L
tp685
g30
I00
(lp686
S'AVQD9fmvePvB1HupEiKf_4245'
p687
aS'AVQD9fmvePvB1HupEiKf_4276'
p688
aS'AVQD9fmvePvB1HupEiKf_4292'
p689
aS'AVQD9fmvePvB1HupEiKf_4294'
p690
aS'AVQD9fmvePvB1HupEiKf_4303'
p691
aS'AVQD9fmvePvB1HupEiKf_4312'
p692
ag87
ag87
ag87
ag87
ag87
ag87
aV[INFO] test-box-service .................................. SKIPPED
p693
aV[INFO] mqm-storage-impl .................................. SKIPPED
p694
aV[INFO] mqm-install-impl .................................. SKIPPED
p695
aV[INFO] saas-portal-mock .................................. SKIPPED
p696
aV[INFO] selenium-wrapper .................................. SKIPPED
p697
aV[INFO] mqm-distribution .................................. SKIPPED
p698
aS'AVQD9fmvePvB1HupEiKf'
p699
aS'AVQD9fmvePvB1HupEiKf'
p700
aS'AVQD9fmvePvB1HupEiKf'
p701
aS'AVQD9fmvePvB1HupEiKf'
p702
aS'AVQD9fmvePvB1HupEiKf'
p703
aS'AVQD9fmvePvB1HupEiKf'
p704
atp705
ba(lp706
g16
(g17
(dp707
g19
g20
(g21
(I0
tp708
g23
tp709
Rp710
(I1
(L1L
tp711
g30
I00
(lp712
g35
atp713
bsg41
Nstp714
Rp715
ag16
(g17
(dp716
g19
g20
(g21
(I0
tp717
g23
tp718
Rp719
(I1
(L1L
tp720
g30
I00
(lp721
g39
atp722
bsg41
Nstp723
Rp724
ag16
(g17
(dp725
g19
g20
(g21
(I0
tp726
g23
tp727
Rp728
(I1
(L4L
tp729
g30
I00
(lp730
g34
ag36
ag37
ag38
atp731
bsg41
Nstp732
Rp733
a(dp734
g124
(dp735
g126
g653
sg127
(lp736
(dp737
g130
g133
sg134
g672
sa(dp738
g130
g137
sg134
g678
sa(dp739
g130
g141
sg134
g684
sasstp740
bsbag1
(g2
g3
Ntp741
Rp742
(dp743
g7
g8
sg9
g10
sg11
g1
(g12
g3
Ntp744
Rp745
((lp746
g43
ag16
(g17
(dp747
g19
g20
(g21
(I0
tp748
g23
tp749
Rp750
(I1
(L4L
tp751
g30
I00
(lp752
S'184259'
p753
aS'184267'
p754
aS'184269'
p755
aS'184271'
p756
atp757
bsg41
Nstp758
Rp759
a(lp760
g20
(g21
(I0
tp761
g23
tp762
Rp763
(I1
(L1L
L4L
tp764
g63
I00
S'\x00\x00\x00\x00\x00\x00\xf0?\x00\x00\x00\x00\x00\x00\xf0?\x00\x00\x00\x00\x00\x00\xf0?\x00\x00\x00\x00\x00\x00\xf0?'
p765
tp766
bag20
(g21
(I0
tp767
g23
tp768
Rp769
(I1
(L1L
L4L
tp770
g74
I00
S'\xfc\x03\x00\x00\x00\x00\x00\x00\xfc\x03\x00\x00\x00\x00\x00\x00\xfc\x03\x00\x00\x00\x00\x00\x00\xfc\x03\x00\x00\x00\x00\x00\x00'
p771
tp772
bag20
(g21
(I0
tp773
g23
tp774
Rp775
(I1
(L4L
L4L
tp776
g30
I00
(lp777
S'AVQD9fmvePvB1HupEiKf_4259'
p778
aS'AVQD9fmvePvB1HupEiKf_4267'
p779
aS'AVQD9fmvePvB1HupEiKf_4269'
p780
aS'AVQD9fmvePvB1HupEiKf_4271'
p781
ag87
ag87
ag87
ag87
aV[INFO] mqm-sync-impl ..................................... SKIPPED
p782
aV[INFO] test-box-rest ..................................... SKIPPED
p783
aV[INFO] mqm-saas-impl ..................................... SKIPPED
p784
aV[INFO] mqm-ui-helper ..................................... SKIPPED
p785
aS'AVQD9fmvePvB1HupEiKf'
p786
aS'AVQD9fmvePvB1HupEiKf'
p787
aS'AVQD9fmvePvB1HupEiKf'
p788
aS'AVQD9fmvePvB1HupEiKf'
p789
atp790
ba(lp791
g16
(g17
(dp792
g19
g20
(g21
(I0
tp793
g23
tp794
Rp795
(I1
(L1L
tp796
g30
I00
(lp797
g35
atp798
bsg41
Nstp799
Rp800
ag16
(g17
(dp801
g19
g20
(g21
(I0
tp802
g23
tp803
Rp804
(I1
(L1L
tp805
g30
I00
(lp806
g39
atp807
bsg41
Nstp808
Rp809
ag16
(g17
(dp810
g19
g20
(g21
(I0
tp811
g23
tp812
Rp813
(I1
(L4L
tp814
g30
I00
(lp815
g34
ag36
ag37
ag38
atp816
bsg41
Nstp817
Rp818
a(dp819
g124
(dp820
g126
g746
sg127
(lp821
(dp822
g130
g133
sg134
g763
sa(dp823
g130
g137
sg134
g769
sa(dp824
g130
g141
sg134
g775
sasstp825
bsbag1
(g2
g3
Ntp826
Rp827
(dp828
g7
g8
sg9
g10
sg11
g1
(g12
g3
Ntp829
Rp830
((lp831
g43
ag16
(g17
(dp832
g19
g20
(g21
(I0
tp833
g23
tp834
Rp835
(I1
(L4L
tp836
g30
I00
(lp837
S'184196'
p838
aS'184239'
p839
aS'184300'
p840
aS'184305'
p841
atp842
bsg41
Nstp843
Rp844
a(lp845
g20
(g21
(I0
tp846
g23
tp847
Rp848
(I1
(L1L
L4L
tp849
g63
I00
S'\x00\x00\x00\x00\x00\x00\xf0?\x00\x00\x00\x00\x00\x00\xf0?\x00\x00\x00\x00\x00\x00\xf0?\x00\x00\x00\x00\x00\x00\xf0?'
p850
tp851
bag20
(g21
(I0
tp852
g23
tp853
Rp854
(I1
(L1L
L4L
tp855
g74
I00
S'\x9f\x04\x00\x00\x00\x00\x00\x00\x9f\x04\x00\x00\x00\x00\x00\x00\x9f\x04\x00\x00\x00\x00\x00\x00\x9f\x04\x00\x00\x00\x00\x00\x00'
p856
tp857
bag20
(g21
(I0
tp858
g23
tp859
Rp860
(I1
(L4L
L4L
tp861
g30
I00
(lp862
S'AVQD9fmvePvB1HupEiKf_4196'
p863
aS'AVQD9fmvePvB1HupEiKf_4239'
p864
aS'AVQD9fmvePvB1HupEiKf_4300'
p865
aS'AVQD9fmvePvB1HupEiKf_4305'
p866
ag87
ag87
ag87
ag87
aV[INFO] mqm-search-api .................................... SKIPPED
p867
aV[INFO] test-box-model .................................... SKIPPED
p868
aV[INFO] identifier-api .................................... SKIPPED
p869
aV[INFO] test-event-bus .................................... SKIPPED
p870
aS'AVQD9fmvePvB1HupEiKf'
p871
aS'AVQD9fmvePvB1HupEiKf'
p872
aS'AVQD9fmvePvB1HupEiKf'
p873
aS'AVQD9fmvePvB1HupEiKf'
p874
atp875
ba(lp876
g16
(g17
(dp877
g19
g20
(g21
(I0
tp878
g23
tp879
Rp880
(I1
(L1L
tp881
g30
I00
(lp882
g35
atp883
bsg41
Nstp884
Rp885
ag16
(g17
(dp886
g19
g20
(g21
(I0
tp887
g23
tp888
Rp889
(I1
(L1L
tp890
g30
I00
(lp891
g39
atp892
bsg41
Nstp893
Rp894
ag16
(g17
(dp895
g19
g20
(g21
(I0
tp896
g23
tp897
Rp898
(I1
(L4L
tp899
g30
I00
(lp900
g34
ag36
ag37
ag38
atp901
bsg41
Nstp902
Rp903
a(dp904
g124
(dp905
g126
g831
sg127
(lp906
(dp907
g130
g133
sg134
g848
sa(dp908
g130
g137
sg134
g854
sa(dp909
g130
g141
sg134
g860
sasstp910
bsbag1
(g2
g3
Ntp911
Rp912
(dp913
g7
g8
sg9
g10
sg11
g1
(g12
g3
Ntp914
Rp915
((lp916
g43
ag16
(g17
(dp917
g19
g20
(g21
(I0
tp918
g23
tp919
Rp920
(I1
(L2L
tp921
g30
I00
(lp922
S'184253'
p923
aS'184316'
p924
atp925
bsg41
Nstp926
Rp927
a(lp928
g20
(g21
(I0
tp929
g23
tp930
Rp931
(I1
(L1L
L2L
tp932
g63
I00
S'\x00\x00\x00\x00\x00\x00\xf0?\x00\x00\x00\x00\x00\x00\xf0?'
p933
tp934
bag20
(g21
(I0
tp935
g23
tp936
Rp937
(I1
(L1L
L2L
tp938
g74
I00
S'\xae\x04\x00\x00\x00\x00\x00\x00\xae\x04\x00\x00\x00\x00\x00\x00'
p939
tp940
bag20
(g21
(I0
tp941
g23
tp942
Rp943
(I1
(L4L
L2L
tp944
g30
I00
(lp945
S'AVQD9fmvePvB1HupEiKf_4253'
p946
aS'AVQD9fmvePvB1HupEiKf_4316'
p947
ag87
ag87
aV[INFO] mqm-bl-platform-br-plugin-impl .................... SKIPPED
p948
aV[INFO] mqm-translation-resources-impl .................... SKIPPED
p949
aS'AVQD9fmvePvB1HupEiKf'
p950
aS'AVQD9fmvePvB1HupEiKf'
p951
atp952
ba(lp953
g16
(g17
(dp954
g19
g20
(g21
(I0
tp955
g23
tp956
Rp957
(I1
(L1L
tp958
g30
I00
(lp959
g35
atp960
bsg41
Nstp961
Rp962
ag16
(g17
(dp963
g19
g20
(g21
(I0
tp964
g23
tp965
Rp966
(I1
(L1L
tp967
g30
I00
(lp968
g39
atp969
bsg41
Nstp970
Rp971
ag16
(g17
(dp972
g19
g20
(g21
(I0
tp973
g23
tp974
Rp975
(I1
(L4L
tp976
g30
I00
(lp977
g34
ag36
ag37
ag38
atp978
bsg41
Nstp979
Rp980
a(dp981
g124
(dp982
g126
g916
sg127
(lp983
(dp984
g130
g133
sg134
g931
sa(dp985
g130
g137
sg134
g937
sa(dp986
g130
g141
sg134
g943
sasstp987
bsbag1
(g2
g3
Ntp988
Rp989
(dp990
g7
g8
sg9
g10
sg11
g1
(g12
g3
Ntp991
Rp992
((lp993
g43
ag16
(g17
(dp994
g19
g20
(g21
(I0
tp995
g23
tp996
Rp997
(I1
(L3L
tp998
g30
I00
(lp999
S'184227'
p1000
aS'184275'
p1001
aS'184302'
p1002
atp1003
bsg41
Nstp1004
Rp1005
a(lp1006
g20
(g21
(I0
tp1007
g23
tp1008
Rp1009
(I1
(L1L
L3L
tp1010
g63
I00
S'\x00\x00\x00\x00\x00\x00\xf0?\x00\x00\x00\x00\x00\x00\xf0?\x00\x00\x00\x00\x00\x00\xf0?'
p1011
tp1012
bag20
(g21
(I0
tp1013
g23
tp1014
Rp1015
(I1
(L1L
L3L
tp1016
g74
I00
S'\xb6\x05\x00\x00\x00\x00\x00\x00\xb6\x05\x00\x00\x00\x00\x00\x00\xb6\x05\x00\x00\x00\x00\x00\x00'
p1017
tp1018
bag20
(g21
(I0
tp1019
g23
tp1020
Rp1021
(I1
(L4L
L3L
tp1022
g30
I00
(lp1023
S'AVQD9fmvePvB1HupEiKf_4227'
p1024
aS'AVQD9fmvePvB1HupEiKf_4275'
p1025
aS'AVQD9fmvePvB1HupEiKf_4302'
p1026
ag87
ag87
ag87
aV[INFO] mqm-reporting-api ................................. SKIPPED
p1027
aV[INFO] mqm-sanitize-impl ................................. SKIPPED
p1028
aV[INFO] automation-common ................................. SKIPPED
p1029
aS'AVQD9fmvePvB1HupEiKf'
p1030
aS'AVQD9fmvePvB1HupEiKf'
p1031
aS'AVQD9fmvePvB1HupEiKf'
p1032
atp1033
ba(lp1034
g16
(g17
(dp1035
g19
g20
(g21
(I0
tp1036
g23
tp1037
Rp1038
(I1
(L1L
tp1039
g30
I00
(lp1040
g35
atp1041
bsg41
Nstp1042
Rp1043
ag16
(g17
(dp1044
g19
g20
(g21
(I0
tp1045
g23
tp1046
Rp1047
(I1
(L1L
tp1048
g30
I00
(lp1049
g39
atp1050
bsg41
Nstp1051
Rp1052
ag16
(g17
(dp1053
g19
g20
(g21
(I0
tp1054
g23
tp1055
Rp1056
(I1
(L4L
tp1057
g30
I00
(lp1058
g34
ag36
ag37
ag38
atp1059
bsg41
Nstp1060
Rp1061
a(dp1062
g124
(dp1063
g126
g993
sg127
(lp1064
(dp1065
g130
g133
sg134
g1009
sa(dp1066
g130
g137
sg134
g1015
sa(dp1067
g130
g141
sg134
g1021
sasstp1068
bsbag1
(g2
g3
Ntp1069
Rp1070
(dp1071
g7
g8
sg9
g10
sg11
g1
(g12
g3
Ntp1072
Rp1073
((lp1074
g43
ag16
(g17
(dp1075
g19
g20
(g21
(I0
tp1076
g23
tp1077
Rp1078
(I1
(L2L
tp1079
g30
I00
(lp1080
S'181059'
p1081
aS'181271'
p1082
atp1083
bsg41
Nstp1084
Rp1085
a(lp1086
g20
(g21
(I0
tp1087
g23
tp1088
Rp1089
(I1
(L1L
L2L
tp1090
g63
I00
S'\x00\x00\x00\x00\x00\x00\xf0?\x00\x00\x00\x00\x00\x00\xf0?'
p1091
tp1092
bag20
(g21
(I0
tp1093
g23
tp1094
Rp1095
(I1
(L1L
L2L
tp1096
g74
I00
S'\x99\x06\x00\x00\x00\x00\x00\x00\x99\x06\x00\x00\x00\x00\x00\x00'
p1097
tp1098
bag20
(g21
(I0
tp1099
g23
tp1100
Rp1101
(I1
(L4L
L2L
tp1102
g30
I00
(lp1103
S'AVQD9fmvePvB1HupEiKf_1059'
p1104
aS'AVQD9fmvePvB1HupEiKf_1271'
p1105
ag87
ag87
aVDownloaded: http://mydtbld0051.hpeswlab.net:8081/nexus/content/groups/mqm-public/org/apache/maven/maven-repository-metadata/2.0.6/maven-repository-metadata-2.0.6.pom (2 KB at 112.9 KB/sec)
p1106
aVDownloaded: http://mydtbld0051.hpeswlab.net:8081/nexus/content/groups/mqm-public/org/apache/maven/maven-profile/2.0.4/maven-profile-2.0.4.pom (2 KB at 112.9 KB/sec)
p1107
aS'AVQD9fmvePvB1HupEiKf'
p1108
aS'AVQD9fmvePvB1HupEiKf'
p1109
atp1110
ba(lp1111
g16
(g17
(dp1112
g19
g20
(g21
(I0
tp1113
g23
tp1114
Rp1115
(I1
(L1L
tp1116
g30
I00
(lp1117
g35
atp1118
bsg41
Nstp1119
Rp1120
ag16
(g17
(dp1121
g19
g20
(g21
(I0
tp1122
g23
tp1123
Rp1124
(I1
(L1L
tp1125
g30
I00
(lp1126
g39
atp1127
bsg41
Nstp1128
Rp1129
ag16
(g17
(dp1130
g19
g20
(g21
(I0
tp1131
g23
tp1132
Rp1133
(I1
(L4L
tp1134
g30
I00
(lp1135
g34
ag36
ag37
ag38
atp1136
bsg41
Nstp1137
Rp1138
a(dp1139
g124
(dp1140
g126
g1074
sg127
(lp1141
(dp1142
g130
g133
sg134
g1089
sa(dp1143
g130
g137
sg134
g1095
sa(dp1144
g130
g141
sg134
g1101
sasstp1145
bsbag1
(g2
g3
Ntp1146
Rp1147
(dp1148
g7
g8
sg9
g10
sg11
g1
(g12
g3
Ntp1149
Rp1150
((lp1151
g43
ag16
(g17
(dp1152
g19
g20
(g21
(I0
tp1153
g23
tp1154
Rp1155
(I1
(L5L
tp1156
g30
I00
(lp1157
S'184165'
p1158
aS'184211'
p1159
aS'184264'
p1160
aS'184268'
p1161
aS'184299'
p1162
atp1163
bsg41
Nstp1164
Rp1165
a(lp1166
g20
(g21
(I0
tp1167
g23
tp1168
Rp1169
(I1
(L1L
L5L
tp1170
g63
I00
S'\x00\x00\x00\x00\x00\x00\xf0?\x00\x00\x00\x00\x00\x00\xf0?\x00\x00\x00\x00\x00\x00\xf0?\x00\x00\x00\x00\x00\x00\xf0?\x00\x00\x00\x00\x00\x00\xf0?'
p1171
tp1172
bag20
(g21
(I0
tp1173
g23
tp1174
Rp1175
(I1
(L1L
L5L
tp1176
g74
I00
S'\x19\x07\x00\x00\x00\x00\x00\x00\x19\x07\x00\x00\x00\x00\x00\x00\x19\x07\x00\x00\x00\x00\x00\x00\x19\x07\x00\x00\x00\x00\x00\x00\x19\x07\x00\x00\x00\x00\x00\x00'
p1177
tp1178
bag20
(g21
(I0
tp1179
g23
tp1180
Rp1181
(I1
(L4L
L5L
tp1182
g30
I00
(lp1183
S'AVQD9fmvePvB1HupEiKf_4165'
p1184
aS'AVQD9fmvePvB1HupEiKf_4211'
p1185
aS'AVQD9fmvePvB1HupEiKf_4264'
p1186
aS'AVQD9fmvePvB1HupEiKf_4268'
p1187
aS'AVQD9fmvePvB1HupEiKf_4299'
p1188
ag87
ag87
ag87
ag87
ag87
aV[INFO] mqm-ps-entity-model-api ........................... SKIPPED
p1189
aV[INFO] mqm-tests-execution-api ........................... SKIPPED
p1190
aV[INFO] mqm-infra-services-impl ........................... SKIPPED
p1191
aV[INFO] test-box-ci-integration ........................... SKIPPED
p1192
aV[INFO] ui-automation-framework ........................... SKIPPED
p1193
aS'AVQD9fmvePvB1HupEiKf'
p1194
aS'AVQD9fmvePvB1HupEiKf'
p1195
aS'AVQD9fmvePvB1HupEiKf'
p1196
aS'AVQD9fmvePvB1HupEiKf'
p1197
aS'AVQD9fmvePvB1HupEiKf'
p1198
atp1199
ba(lp1200
g16
(g17
(dp1201
g19
g20
(g21
(I0
tp1202
g23
tp1203
Rp1204
(I1
(L1L
tp1205
g30
I00
(lp1206
g35
atp1207
bsg41
Nstp1208
Rp1209
ag16
(g17
(dp1210
g19
g20
(g21
(I0
tp1211
g23
tp1212
Rp1213
(I1
(L1L
tp1214
g30
I00
(lp1215
g39
atp1216
bsg41
Nstp1217
Rp1218
ag16
(g17
(dp1219
g19
g20
(g21
(I0
tp1220
g23
tp1221
Rp1222
(I1
(L4L
tp1223
g30
I00
(lp1224
g34
ag36
ag37
ag38
atp1225
bsg41
Nstp1226
Rp1227
a(dp1228
g124
(dp1229
g126
g1151
sg127
(lp1230
(dp1231
g130
g133
sg134
g1169
sa(dp1232
g130
g137
sg134
g1175
sa(dp1233
g130
g141
sg134
g1181
sasstp1234
bsbag1
(g2
g3
Ntp1235
Rp1236
(dp1237
g7
g8
sg9
g10
sg11
g1
(g12
g3
Ntp1238
Rp1239
((lp1240
g43
ag16
(g17
(dp1241
g19
g20
(g21
(I0
tp1242
g23
tp1243
Rp1244
(I1
(L2L
tp1245
g30
I00
(lp1246
S'184176'
p1247
aS'184273'
p1248
atp1249
bsg41
Nstp1250
Rp1251
a(lp1252
g20
(g21
(I0
tp1253
g23
tp1254
Rp1255
(I1
(L1L
L2L
tp1256
g63
I00
S'\x00\x00\x00\x00\x00\x00\xf0?\x00\x00\x00\x00\x00\x00\xf0?'
p1257
tp1258
bag20
(g21
(I0
tp1259
g23
tp1260
Rp1261
(I1
(L1L
L2L
tp1262
g74
I00
S'\xc7\x08\x00\x00\x00\x00\x00\x00\xc7\x08\x00\x00\x00\x00\x00\x00'
p1263
tp1264
bag20
(g21
(I0
tp1265
g23
tp1266
Rp1267
(I1
(L4L
L2L
tp1268
g30
I00
(lp1269
S'AVQD9fmvePvB1HupEiKf_4176'
p1270
aS'AVQD9fmvePvB1HupEiKf_4273'
p1271
ag87
ag87
aV[INFO] mqm-ps-platform-services-api ...................... SKIPPED
p1272
aV[INFO] mqm-distributed-service-impl ...................... SKIPPED
p1273
aS'AVQD9fmvePvB1HupEiKf'
p1274
aS'AVQD9fmvePvB1HupEiKf'
p1275
atp1276
ba(lp1277
g16
(g17
(dp1278
g19
g20
(g21
(I0
tp1279
g23
tp1280
Rp1281
(I1
(L1L
tp1282
g30
I00
(lp1283
g35
atp1284
bsg41
Nstp1285
Rp1286
ag16
(g17
(dp1287
g19
g20
(g21
(I0
tp1288
g23
tp1289
Rp1290
(I1
(L1L
tp1291
g30
I00
(lp1292
g39
atp1293
bsg41
Nstp1294
Rp1295
ag16
(g17
(dp1296
g19
g20
(g21
(I0
tp1297
g23
tp1298
Rp1299
(I1
(L4L
tp1300
g30
I00
(lp1301
g34
ag36
ag37
ag38
atp1302
bsg41
Nstp1303
Rp1304
a(dp1305
g124
(dp1306
g126
g1240
sg127
(lp1307
(dp1308
g130
g133
sg134
g1255
sa(dp1309
g130
g137
sg134
g1261
sa(dp1310
g130
g141
sg134
g1267
sasstp1311
bsbag1
(g2
g3
Ntp1312
Rp1313
(dp1314
g7
g8
sg9
g10
sg11
g1
(g12
g3
Ntp1315
Rp1316
((lp1317
g43
ag16
(g17
(dp1318
g19
g20
(g21
(I0
tp1319
g23
tp1320
Rp1321
(I1
(L2L
tp1322
g30
I00
(lp1323
S'183876'
p1324
aS'183880'
p1325
atp1326
bsg41
Nstp1327
Rp1328
a(lp1329
g20
(g21
(I0
tp1330
g23
tp1331
Rp1332
(I1
(L1L
L2L
tp1333
g63
I00
S'\x00\x00\x00\x00\x00\x00\xf0?\x00\x00\x00\x00\x00\x00\xf0?'
p1334
tp1335
bag20
(g21
(I0
tp1336
g23
tp1337
Rp1338
(I1
(L1L
L2L
tp1339
g74
I00
S'5\t\x00\x00\x00\x00\x00\x005\t\x00\x00\x00\x00\x00\x00'
p1340
tp1341
bag20
(g21
(I0
tp1342
g23
tp1343
Rp1344
(I1
(L4L
L2L
tp1345
g30
I00
(lp1346
S'AVQD9fmvePvB1HupEiKf_3876'
p1347
aS'AVQD9fmvePvB1HupEiKf_3880'
p1348
ag87
ag87
aVDownloaded: http://mydtbld0051.hpeswlab.net:8081/nexus/content/groups/mqm-public/org/objenesis/objenesis-parent/2.1/objenesis-parent-2.1.pom (17 KB at 1255.0 KB/sec)
p1349
aVDownloaded: http://mydtbld0051.hpeswlab.net:8081/nexus/content/groups/mqm-public/org/objenesis/objenesis-parent/2.1/objenesis-parent-2.1.pom (17 KB at 1087.7 KB/sec)
p1350
aS'AVQD9fmvePvB1HupEiKf'
p1351
aS'AVQD9fmvePvB1HupEiKf'
p1352
atp1353
ba(lp1354
g16
(g17
(dp1355
g19
g20
(g21
(I0
tp1356
g23
tp1357
Rp1358
(I1
(L1L
tp1359
g30
I00
(lp1360
g35
atp1361
bsg41
Nstp1362
Rp1363
ag16
(g17
(dp1364
g19
g20
(g21
(I0
tp1365
g23
tp1366
Rp1367
(I1
(L1L
tp1368
g30
I00
(lp1369
g39
atp1370
bsg41
Nstp1371
Rp1372
ag16
(g17
(dp1373
g19
g20
(g21
(I0
tp1374
g23
tp1375
Rp1376
(I1
(L4L
tp1377
g30
I00
(lp1378
g34
ag36
ag37
ag38
atp1379
bsg41
Nstp1380
Rp1381
a(dp1382
g124
(dp1383
g126
g1317
sg127
(lp1384
(dp1385
g130
g133
sg134
g1332
sa(dp1386
g130
g137
sg134
g1338
sa(dp1387
g130
g141
sg134
g1344
sasstp1388
bsbag1
(g2
g3
Ntp1389
Rp1390
(dp1391
g7
g8
sg9
g10
sg11
g1
(g12
g3
Ntp1392
Rp1393
((lp1394
g43
ag16
(g17
(dp1395
g19
g20
(g21
(I0
tp1396
g23
tp1397
Rp1398
(I1
(L2L
tp1399
g30
I00
(lp1400
S'183977'
p1401
aS'184044'
p1402
atp1403
bsg41
Nstp1404
Rp1405
a(lp1406
g20
(g21
(I0
tp1407
g23
tp1408
Rp1409
(I1
(L1L
L2L
tp1410
g63
I00
S'\x00\x00\x00\x00\x00\x00\xf0?\x00\x00\x00\x00\x00\x00\xf0?'
p1411
tp1412
bag20
(g21
(I0
tp1413
g23
tp1414
Rp1415
(I1
(L1L
L2L
tp1416
g74
I00
S'V\t\x00\x00\x00\x00\x00\x00V\t\x00\x00\x00\x00\x00\x00'
p1417
tp1418
bag20
(g21
(I0
tp1419
g23
tp1420
Rp1421
(I1
(L4L
L2L
tp1422
g30
I00
(lp1423
S'AVQD9fmvePvB1HupEiKf_3977'
p1424
aS'AVQD9fmvePvB1HupEiKf_4044'
p1425
ag87
ag87
aVDownloaded: http://mydtbld0051.hpeswlab.net:8081/nexus/content/groups/mqm-public/org/objenesis/objenesis/2.1/objenesis-2.1.jar (41 KB at 2912.6 KB/sec)
p1426
aVDownloaded: http://mydtbld0051.hpeswlab.net:8081/nexus/content/groups/mqm-public/org/objenesis/objenesis/2.1/objenesis-2.1.jar (41 KB at 2038.8 KB/sec)
p1427
aS'AVQD9fmvePvB1HupEiKf'
p1428
aS'AVQD9fmvePvB1HupEiKf'
p1429
atp1430
ba(lp1431
g16
(g17
(dp1432
g19
g20
(g21
(I0
tp1433
g23
tp1434
Rp1435
(I1
(L1L
tp1436
g30
I00
(lp1437
g35
atp1438
bsg41
Nstp1439
Rp1440
ag16
(g17
(dp1441
g19
g20
(g21
(I0
tp1442
g23
tp1443
Rp1444
(I1
(L1L
tp1445
g30
I00
(lp1446
g39
atp1447
bsg41
Nstp1448
Rp1449
ag16
(g17
(dp1450
g19
g20
(g21
(I0
tp1451
g23
tp1452
Rp1453
(I1
(L4L
tp1454
g30
I00
(lp1455
g34
ag36
ag37
ag38
atp1456
bsg41
Nstp1457
Rp1458
a(dp1459
g124
(dp1460
g126
g1394
sg127
(lp1461
(dp1462
g130
g133
sg134
g1409
sa(dp1463
g130
g137
sg134
g1415
sa(dp1464
g130
g141
sg134
g1421
sasstp1465
bsbag1
(g2
g3
Ntp1466
Rp1467
(dp1468
g7
g8
sg9
g10
sg11
g1
(g12
g3
Ntp1469
Rp1470
((lp1471
g43
ag16
(g17
(dp1472
g19
g20
(g21
(I0
tp1473
g23
tp1474
Rp1475
(I1
(L5L
tp1476
g30
I00
(lp1477
S'184198'
p1478
aS'184200'
p1479
aS'184218'
p1480
aS'184232'
p1481
aS'184244'
p1482
atp1483
bsg41
Nstp1484
Rp1485
a(lp1486
g20
(g21
(I0
tp1487
g23
tp1488
Rp1489
(I1
(L1L
L5L
tp1490
g63
I00
S'\x00\x00\x00\x00\x00\x00\xf0?\x00\x00\x00\x00\x00\x00\xf0?\x00\x00\x00\x00\x00\x00\xf0?\x00\x00\x00\x00\x00\x00\xf0?\x00\x00\x00\x00\x00\x00\xf0?'
p1491
tp1492
bag20
(g21
(I0
tp1493
g23
tp1494
Rp1495
(I1
(L1L
L5L
tp1496
g74
I00
S'\x1e\n\x00\x00\x00\x00\x00\x00\x1e\n\x00\x00\x00\x00\x00\x00\x1e\n\x00\x00\x00\x00\x00\x00\x1e\n\x00\x00\x00\x00\x00\x00\x1e\n\x00\x00\x00\x00\x00\x00'
p1497
tp1498
bag20
(g21
(I0
tp1499
g23
tp1500
Rp1501
(I1
(L4L
L5L
tp1502
g30
I00
(lp1503
S'AVQD9fmvePvB1HupEiKf_4198'
p1504
aS'AVQD9fmvePvB1HupEiKf_4200'
p1505
aS'AVQD9fmvePvB1HupEiKf_4218'
p1506
aS'AVQD9fmvePvB1HupEiKf_4232'
p1507
aS'AVQD9fmvePvB1HupEiKf_4244'
p1508
ag87
ag87
ag87
ag87
ag87
aV[INFO] mqm-elastic-infra-api ............................. SKIPPED
p1509
aV[INFO] mqm-infra-server-impl ............................. SKIPPED
p1510
aV[INFO] mqm-dal-db-infra-impl ............................. SKIPPED
p1511
aV[INFO] mqm-rest-platform-api ............................. SKIPPED
p1512
aV[INFO] test-box-test-support ............................. SKIPPED
p1513
aS'AVQD9fmvePvB1HupEiKf'
p1514
aS'AVQD9fmvePvB1HupEiKf'
p1515
aS'AVQD9fmvePvB1HupEiKf'
p1516
aS'AVQD9fmvePvB1HupEiKf'
p1517
aS'AVQD9fmvePvB1HupEiKf'
p1518
atp1519
ba(lp1520
g16
(g17
(dp1521
g19
g20
(g21
(I0
tp1522
g23
tp1523
Rp1524
(I1
(L1L
tp1525
g30
I00
(lp1526
g35
atp1527
bsg41
Nstp1528
Rp1529
ag16
(g17
(dp1530
g19
g20
(g21
(I0
tp1531
g23
tp1532
Rp1533
(I1
(L1L
tp1534
g30
I00
(lp1535
g39
atp1536
bsg41
Nstp1537
Rp1538
ag16
(g17
(dp1539
g19
g20
(g21
(I0
tp1540
g23
tp1541
Rp1542
(I1
(L4L
tp1543
g30
I00
(lp1544
g34
ag36
ag37
ag38
atp1545
bsg41
Nstp1546
Rp1547
a(dp1548
g124
(dp1549
g126
g1471
sg127
(lp1550
(dp1551
g130
g133
sg134
g1489
sa(dp1552
g130
g137
sg134
g1495
sa(dp1553
g130
g141
sg134
g1501
sasstp1554
bsbag1
(g2
g3
Ntp1555
Rp1556
(dp1557
g7
g8
sg9
g10
sg11
g1
(g12
g3
Ntp1558
Rp1559
((lp1560
g43
ag16
(g17
(dp1561
g19
g20
(g21
(I0
tp1562
g23
tp1563
Rp1564
(I1
(L2L
tp1565
g30
I00
(lp1566
S'18348'
p1567
aS'181269'
p1568
atp1569
bsg41
Nstp1570
Rp1571
a(lp1572
g20
(g21
(I0
tp1573
g23
tp1574
Rp1575
(I1
(L1L
L2L
tp1576
g63
I00
S'\x00\x00\x00\x00\x00\x00\xf0?\x00\x00\x00\x00\x00\x00\xf0?'
p1577
tp1578
bag20
(g21
(I0
tp1579
g23
tp1580
Rp1581
(I1
(L1L
L2L
tp1582
g74
I00
S'?\x0b\x00\x00\x00\x00\x00\x00?\x0b\x00\x00\x00\x00\x00\x00'
p1583
tp1584
bag20
(g21
(I0
tp1585
g23
tp1586
Rp1587
(I1
(L4L
L2L
tp1588
g30
I00
(lp1589
S'AVQD9fmvePvB1HupEiKf_348'
p1590
aS'AVQD9fmvePvB1HupEiKf_1269'
p1591
ag87
ag87
aVDownloaded: http://mydtbld0051.hpeswlab.net:8081/nexus/content/groups/mqm-public/org/apache/maven/maven-project/2.0.9/maven-project-2.0.9.pom (3 KB at 165.4 KB/sec)
p1592
aVDownloaded: http://mydtbld0051.hpeswlab.net:8081/nexus/content/groups/mqm-public/org/apache/maven/maven-model/2.0.4/maven-model-2.0.4.pom (3 KB at 203.6 KB/sec)
p1593
aS'AVQD9fmvePvB1HupEiKf'
p1594
aS'AVQD9fmvePvB1HupEiKf'
p1595
atp1596
ba(lp1597
g16
(g17
(dp1598
g19
g20
(g21
(I0
tp1599
g23
tp1600
Rp1601
(I1
(L1L
tp1602
g30
I00
(lp1603
g35
atp1604
bsg41
Nstp1605
Rp1606
ag16
(g17
(dp1607
g19
g20
(g21
(I0
tp1608
g23
tp1609
Rp1610
(I1
(L1L
tp1611
g30
I00
(lp1612
g39
atp1613
bsg41
Nstp1614
Rp1615
ag16
(g17
(dp1616
g19
g20
(g21
(I0
tp1617
g23
tp1618
Rp1619
(I1
(L4L
tp1620
g30
I00
(lp1621
g34
ag36
ag37
ag38
atp1622
bsg41
Nstp1623
Rp1624
a(dp1625
g124
(dp1626
g126
g1560
sg127
(lp1627
(dp1628
g130
g133
sg134
g1575
sa(dp1629
g130
g137
sg134
g1581
sa(dp1630
g130
g141
sg134
g1587
sasstp1631
bsbag1
(g2
g3
Ntp1632
Rp1633
(dp1634
g7
g8
sg9
g10
sg11
g1
(g12
g3
Ntp1635
Rp1636
((lp1637
g43
ag16
(g17
(dp1638
g19
g20
(g21
(I0
tp1639
g23
tp1640
Rp1641
(I1
(L3L
tp1642
g30
I00
(lp1643
S'184209'
p1644
aS'184229'
p1645
aS'184241'
p1646
atp1647
bsg41
Nstp1648
Rp1649
a(lp1650
g20
(g21
(I0
tp1651
g23
tp1652
Rp1653
(I1
(L1L
L3L
tp1654
g63
I00
S'\x00\x00\x00\x00\x00\x00\xf0?\x00\x00\x00\x00\x00\x00\xf0?\x00\x00\x00\x00\x00\x00\xf0?'
p1655
tp1656
bag20
(g21
(I0
tp1657
g23
tp1658
Rp1659
(I1
(L1L
L3L
tp1660
g74
I00
S'v\x0c\x00\x00\x00\x00\x00\x00v\x0c\x00\x00\x00\x00\x00\x00v\x0c\x00\x00\x00\x00\x00\x00'
p1661
tp1662
bag20
(g21
(I0
tp1663
g23
tp1664
Rp1665
(I1
(L4L
L3L
tp1666
g30
I00
(lp1667
S'AVQD9fmvePvB1HupEiKf_4209'
p1668
aS'AVQD9fmvePvB1HupEiKf_4229'
p1669
aS'AVQD9fmvePvB1HupEiKf_4241'
p1670
ag87
ag87
ag87
aV[INFO] mqm-saas-api ...................................... SKIPPED
p1671
aV[INFO] mqm-sync-api ...................................... SKIPPED
p1672
aV[INFO] test-box-dal ...................................... SKIPPED
p1673
aS'AVQD9fmvePvB1HupEiKf'
p1674
aS'AVQD9fmvePvB1HupEiKf'
p1675
aS'AVQD9fmvePvB1HupEiKf'
p1676
atp1677
ba(lp1678
g16
(g17
(dp1679
g19
g20
(g21
(I0
tp1680
g23
tp1681
Rp1682
(I1
(L1L
tp1683
g30
I00
(lp1684
g35
atp1685
bsg41
Nstp1686
Rp1687
ag16
(g17
(dp1688
g19
g20
(g21
(I0
tp1689
g23
tp1690
Rp1691
(I1
(L1L
tp1692
g30
I00
(lp1693
g39
atp1694
bsg41
Nstp1695
Rp1696
ag16
(g17
(dp1697
g19
g20
(g21
(I0
tp1698
g23
tp1699
Rp1700
(I1
(L4L
tp1701
g30
I00
(lp1702
g34
ag36
ag37
ag38
atp1703
bsg41
Nstp1704
Rp1705
a(dp1706
g124
(dp1707
g126
g1637
sg127
(lp1708
(dp1709
g130
g133
sg134
g1653
sa(dp1710
g130
g137
sg134
g1659
sa(dp1711
g130
g141
sg134
g1665
sasstp1712
bsbag1
(g2
g3
Ntp1713
Rp1714
(dp1715
g7
g8
sg9
g10
sg11
g1
(g12
g3
Ntp1716
Rp1717
((lp1718
g43
ag16
(g17
(dp1719
g19
g20
(g21
(I0
tp1720
g23
tp1721
Rp1722
(I1
(L2L
tp1723
g30
I00
(lp1724
S'184181'
p1725
aS'184279'
p1726
atp1727
bsg41
Nstp1728
Rp1729
a(lp1730
g20
(g21
(I0
tp1731
g23
tp1732
Rp1733
(I1
(L1L
L2L
tp1734
g63
I00
S'\x00\x00\x00\x00\x00\x00\xf0?\x00\x00\x00\x00\x00\x00\xf0?'
p1735
tp1736
bag20
(g21
(I0
tp1737
g23
tp1738
Rp1739
(I1
(L1L
L2L
tp1740
g74
I00
S'\xd0\r\x00\x00\x00\x00\x00\x00\xd0\r\x00\x00\x00\x00\x00\x00'
p1741
tp1742
bag20
(g21
(I0
tp1743
g23
tp1744
Rp1745
(I1
(L4L
L2L
tp1746
g30
I00
(lp1747
S'AVQD9fmvePvB1HupEiKf_4181'
p1748
aS'AVQD9fmvePvB1HupEiKf_4279'
p1749
ag87
ag87
aV[INFO] mqm-dal-db-entity-platform ........................ SKIPPED
p1750
aV[INFO] mqm-app-production-modules ........................ SKIPPED
p1751
aS'AVQD9fmvePvB1HupEiKf'
p1752
aS'AVQD9fmvePvB1HupEiKf'
p1753
atp1754
ba(lp1755
g16
(g17
(dp1756
g19
g20
(g21
(I0
tp1757
g23
tp1758
Rp1759
(I1
(L1L
tp1760
g30
I00
(lp1761
g35
atp1762
bsg41
Nstp1763
Rp1764
ag16
(g17
(dp1765
g19
g20
(g21
(I0
tp1766
g23
tp1767
Rp1768
(I1
(L1L
tp1769
g30
I00
(lp1770
g39
atp1771
bsg41
Nstp1772
Rp1773
ag16
(g17
(dp1774
g19
g20
(g21
(I0
tp1775
g23
tp1776
Rp1777
(I1
(L4L
tp1778
g30
I00
(lp1779
g34
ag36
ag37
ag38
atp1780
bsg41
Nstp1781
Rp1782
a(dp1783
g124
(dp1784
g126
g1718
sg127
(lp1785
(dp1786
g130
g133
sg134
g1733
sa(dp1787
g130
g137
sg134
g1739
sa(dp1788
g130
g141
sg134
g1745
sasstp1789
bsbag1
(g2
g3
Ntp1790
Rp1791
(dp1792
g7
g8
sg9
g10
sg11
g1
(g12
g3
Ntp1793
Rp1794
((lp1795
g43
ag16
(g17
(dp1796
g19
g20
(g21
(I0
tp1797
g23
tp1798
Rp1799
(I1
(L2L
tp1800
g30
I00
(lp1801
S'184203'
p1802
aS'184230'
p1803
atp1804
bsg41
Nstp1805
Rp1806
a(lp1807
g20
(g21
(I0
tp1808
g23
tp1809
Rp1810
(I1
(L1L
L2L
tp1811
g63
I00
S'\x00\x00\x00\x00\x00\x00\xf0?\x00\x00\x00\x00\x00\x00\xf0?'
p1812
tp1813
bag20
(g21
(I0
tp1814
g23
tp1815
Rp1816
(I1
(L1L
L2L
tp1817
g74
I00
S'A\x10\x00\x00\x00\x00\x00\x00A\x10\x00\x00\x00\x00\x00\x00'
p1818
tp1819
bag20
(g21
(I0
tp1820
g23
tp1821
Rp1822
(I1
(L4L
L2L
tp1823
g30
I00
(lp1824
S'AVQD9fmvePvB1HupEiKf_4203'
p1825
aS'AVQD9fmvePvB1HupEiKf_4230'
p1826
ag87
ag87
aV[INFO] mqm-rest-infra-impl ............................... SKIPPED
p1827
aV[INFO] mqm-trend-sync-impl ............................... SKIPPED
p1828
aS'AVQD9fmvePvB1HupEiKf'
p1829
aS'AVQD9fmvePvB1HupEiKf'
p1830
atp1831
ba(lp1832
g16
(g17
(dp1833
g19
g20
(g21
(I0
tp1834
g23
tp1835
Rp1836
(I1
(L1L
tp1837
g30
I00
(lp1838
g35
atp1839
bsg41
Nstp1840
Rp1841
ag16
(g17
(dp1842
g19
g20
(g21
(I0
tp1843
g23
tp1844
Rp1845
(I1
(L1L
tp1846
g30
I00
(lp1847
g39
atp1848
bsg41
Nstp1849
Rp1850
ag16
(g17
(dp1851
g19
g20
(g21
(I0
tp1852
g23
tp1853
Rp1854
(I1
(L4L
tp1855
g30
I00
(lp1856
g34
ag36
ag37
ag38
atp1857
bsg41
Nstp1858
Rp1859
a(dp1860
g124
(dp1861
g126
g1795
sg127
(lp1862
(dp1863
g130
g133
sg134
g1810
sa(dp1864
g130
g137
sg134
g1816
sa(dp1865
g130
g141
sg134
g1822
sasstp1866
bsba.