(lp0
ccopy_reg
_reconstructor
p1
(cpandas.core.frame
DataFrame
p2
c__builtin__
object
p3
Ntp4
Rp5
(dp6
S'_metadata'
p7
(lp8
sS'_typ'
p9
S'dataframe'
p10
sS'_data'
p11
g1
(cpandas.core.internals
BlockManager
p12
g3
Ntp13
Rp14
((lp15
cpandas.indexes.base
_new_Index
p16
(cpandas.indexes.base
Index
p17
(dp18
S'data'
p19
cnumpy.core.multiarray
_reconstruct
p20
(cnumpy
ndarray
p21
(I0
tp22
S'b'
p23
tp24
Rp25
(I1
(L4L
tp26
cnumpy
dtype
p27
(S'O8'
p28
I0
I1
tp29
Rp30
(I3
S'|'
p31
NNNI-1
I-1
I63
tp32
bI00
(lp33
S'fail'
p34
aS'logs'
p35
aS'cluster'
p36
aS'idl'
p37
atp38
bsS'name'
p39
Nstp40
Rp41
ag16
(g17
(dp42
g19
g20
(g21
(I0
tp43
g23
tp44
Rp45
(I1
(L3L
tp46
g30
I00
(lp47
S'5318716'
p48
aS'5418688'
p49
aS'5518687'
p50
atp51
bsg39
Nstp52
Rp53
a(lp54
g20
(g21
(I0
tp55
g23
tp56
Rp57
(I1
(L1L
L3L
tp58
g27
(S'f8'
p59
I0
I1
tp60
Rp61
(I3
S'<'
p62
NNNI-1
I-1
I0
tp63
bI00
S'\x00\x00\x00\x00\x00\x00\xf0?\x00\x00\x00\x00\x00\x00\xf0?\x00\x00\x00\x00\x00\x00\xf0?'
p64
tp65
bag20
(g21
(I0
tp66
g23
tp67
Rp68
(I1
(L2L
L3L
tp69
g30
I00
(lp70
V^ Missing "use strict" statement.
p71
aV^ Missing "use strict" statement.
p72
aV^ Missing "use strict" statement.
p73
aS'AVQFDr4YePvB1HupEiO1'
p74
aS'AVQFHq9cePvB1HupEiPK'
p75
aS'AVQFJXM4ePvB1HupEiPS'
p76
atp77
bag20
(g21
(I0
tp78
g23
tp79
Rp80
(I1
(L1L
L3L
tp81
g27
(S'i8'
p82
I0
I1
tp83
Rp84
(I3
S'<'
p85
NNNI-1
I-1
I0
tp86
bI00
S'\x95\x00\x00\x00\x00\x00\x00\x00\x95\x00\x00\x00\x00\x00\x00\x00\x95\x00\x00\x00\x00\x00\x00\x00'
p87
tp88
ba(lp89
g16
(g17
(dp90
g19
g20
(g21
(I0
tp91
g23
tp92
Rp93
(I1
(L1L
tp94
g30
I00
(lp95
g34
atp96
bsg39
Nstp97
Rp98
ag16
(g17
(dp99
g19
g20
(g21
(I0
tp100
g23
tp101
Rp102
(I1
(L2L
tp103
g30
I00
(lp104
g35
ag37
atp105
bsg39
Nstp106
Rp107
ag16
(g17
(dp108
g19
g20
(g21
(I0
tp109
g23
tp110
Rp111
(I1
(L1L
tp112
g30
I00
(lp113
g36
atp114
bsg39
Nstp115
Rp116
a(dp117
S'0.14.1'
p118
(dp119
S'axes'
p120
g15
sS'blocks'
p121
(lp122
(dp123
S'mgr_locs'
p124
c__builtin__
slice
p125
(I0
I1
I1
tp126
Rp127
sS'values'
p128
g57
sa(dp129
g124
g125
(I1
I5
L2L
tp130
Rp131
sg128
g68
sa(dp132
g124
g125
(I2
I3
I1
tp133
Rp134
sg128
g80
sasstp135
bsbag1
(g2
g3
Ntp136
Rp137
(dp138
g7
g8
sg9
g10
sg11
g1
(g12
g3
Ntp139
Rp140
((lp141
g41
ag16
(g17
(dp142
g19
g20
(g21
(I0
tp143
g23
tp144
Rp145
(I1
(L3L
tp146
g30
I00
(lp147
S'184338'
p148
aS'5318949'
p149
aS'5518920'
p150
atp151
bsg39
Nstp152
Rp153
a(lp154
g20
(g21
(I0
tp155
g23
tp156
Rp157
(I1
(L1L
L3L
tp158
g61
I00
S'\x00\x00\x00\x00\x00\x00\xf0?\x00\x00\x00\x00\x00\x00\xf0?\x00\x00\x00\x00\x00\x00\xf0?'
p159
tp160
bag20
(g21
(I0
tp161
g23
tp162
Rp163
(I1
(L2L
L3L
tp164
g30
I00
(lp165
Vat org.apache.maven.lifecycle.internal.LifecycleThreadedBuilder$1.call(LifecycleThreadedBuilder.java:163)
p166
aVat org.apache.maven.lifecycle.internal.LifecycleThreadedBuilder$1.call(LifecycleThreadedBuilder.java:163)
p167
aVat org.apache.maven.lifecycle.internal.LifecycleThreadedBuilder$1.call(LifecycleThreadedBuilder.java:163)
p168
aS'AVQD9fmvePvB1HupEiKf'
p169
aS'AVQFDr4YePvB1HupEiO1'
p170
aS'AVQFJXM4ePvB1HupEiPS'
p171
atp172
bag20
(g21
(I0
tp173
g23
tp174
Rp175
(I1
(L1L
L3L
tp176
g84
I00
S'\xaf\x01\x00\x00\x00\x00\x00\x00\xaf\x01\x00\x00\x00\x00\x00\x00\xaf\x01\x00\x00\x00\x00\x00\x00'
p177
tp178
ba(lp179
g16
(g17
(dp180
g19
g20
(g21
(I0
tp181
g23
tp182
Rp183
(I1
(L1L
tp184
g30
I00
(lp185
g34
atp186
bsg39
Nstp187
Rp188
ag16
(g17
(dp189
g19
g20
(g21
(I0
tp190
g23
tp191
Rp192
(I1
(L2L
tp193
g30
I00
(lp194
g35
ag37
atp195
bsg39
Nstp196
Rp197
ag16
(g17
(dp198
g19
g20
(g21
(I0
tp199
g23
tp200
Rp201
(I1
(L1L
tp202
g30
I00
(lp203
g36
atp204
bsg39
Nstp205
Rp206
a(dp207
g118
(dp208
g120
g141
sg121
(lp209
(dp210
g124
g127
sg128
g157
sa(dp211
g124
g131
sg128
g163
sa(dp212
g124
g134
sg128
g175
sasstp213
bsbag1
(g2
g3
Ntp214
Rp215
(dp216
g7
g8
sg9
g10
sg11
g1
(g12
g3
Ntp217
Rp218
((lp219
g41
ag16
(g17
(dp220
g19
g20
(g21
(I0
tp221
g23
tp222
Rp223
(I1
(L3L
tp224
g30
I00
(lp225
S'184368'
p226
aS'5318984'
p227
aS'5418956'
p228
atp229
bsg39
Nstp230
Rp231
a(lp232
g20
(g21
(I0
tp233
g23
tp234
Rp235
(I1
(L1L
L3L
tp236
g61
I00
S'\x00\x00\x00\x00\x00\x00\xf0?\x00\x00\x00\x00\x00\x00\xf0?\x00\x00\x00\x00\x00\x00\xf0?'
p237
tp238
bag20
(g21
(I0
tp239
g23
tp240
Rp241
(I1
(L2L
L3L
tp242
g30
I00
(lp243
V[ERROR] mvn <goals> -rf :mqm-generate-entities-maven-plugin
p244
aV[ERROR] mvn <goals> -rf :mqm-web-ui
p245
aV[ERROR] mvn <goals> -rf :mqm-web-ui
p246
aS'AVQD9fmvePvB1HupEiKf'
p247
aS'AVQFDr4YePvB1HupEiO1'
p248
aS'AVQFHq9cePvB1HupEiPK'
p249
atp250
bag20
(g21
(I0
tp251
g23
tp252
Rp253
(I1
(L1L
L3L
tp254
g84
I00
S'\x1c\x02\x00\x00\x00\x00\x00\x00\x1c\x02\x00\x00\x00\x00\x00\x00\x1c\x02\x00\x00\x00\x00\x00\x00'
p255
tp256
ba(lp257
g16
(g17
(dp258
g19
g20
(g21
(I0
tp259
g23
tp260
Rp261
(I1
(L1L
tp262
g30
I00
(lp263
g34
atp264
bsg39
Nstp265
Rp266
ag16
(g17
(dp267
g19
g20
(g21
(I0
tp268
g23
tp269
Rp270
(I1
(L2L
tp271
g30
I00
(lp272
g35
ag37
atp273
bsg39
Nstp274
Rp275
ag16
(g17
(dp276
g19
g20
(g21
(I0
tp277
g23
tp278
Rp279
(I1
(L1L
tp280
g30
I00
(lp281
g36
atp282
bsg39
Nstp283
Rp284
a(dp285
g118
(dp286
g120
g219
sg121
(lp287
(dp288
g124
g127
sg128
g235
sa(dp289
g124
g131
sg128
g241
sa(dp290
g124
g134
sg128
g253
sasstp291
bsbag1
(g2
g3
Ntp292
Rp293
(dp294
g7
g8
sg9
g10
sg11
g1
(g12
g3
Ntp295
Rp296
((lp297
g41
ag16
(g17
(dp298
g19
g20
(g21
(I0
tp299
g23
tp300
Rp301
(I1
(L2L
tp302
g30
I00
(lp303
S'5318944'
p304
aS'5418916'
p305
atp306
bsg39
Nstp307
Rp308
a(lp309
g20
(g21
(I0
tp310
g23
tp311
Rp312
(I1
(L1L
L2L
tp313
g61
I00
S'\x00\x00\x00\x00\x00\x00\xf0?\x00\x00\x00\x00\x00\x00\xf0?'
p314
tp315
bag20
(g21
(I0
tp316
g23
tp317
Rp318
(I1
(L2L
L2L
tp319
g30
I00
(lp320
Vat org.apache.maven.lifecycle.internal.MojoExecutor.execute(MojoExecutor.java:217)
p321
aVat org.apache.maven.lifecycle.internal.MojoExecutor.execute(MojoExecutor.java:217)
p322
aS'AVQFDr4YePvB1HupEiO1'
p323
aS'AVQFHq9cePvB1HupEiPK'
p324
atp325
bag20
(g21
(I0
tp326
g23
tp327
Rp328
(I1
(L1L
L2L
tp329
g84
I00
S'A\x02\x00\x00\x00\x00\x00\x00A\x02\x00\x00\x00\x00\x00\x00'
p330
tp331
ba(lp332
g16
(g17
(dp333
g19
g20
(g21
(I0
tp334
g23
tp335
Rp336
(I1
(L1L
tp337
g30
I00
(lp338
g34
atp339
bsg39
Nstp340
Rp341
ag16
(g17
(dp342
g19
g20
(g21
(I0
tp343
g23
tp344
Rp345
(I1
(L2L
tp346
g30
I00
(lp347
g35
ag37
atp348
bsg39
Nstp349
Rp350
ag16
(g17
(dp351
g19
g20
(g21
(I0
tp352
g23
tp353
Rp354
(I1
(L1L
tp355
g30
I00
(lp356
g36
atp357
bsg39
Nstp358
Rp359
a(dp360
g118
(dp361
g120
g297
sg121
(lp362
(dp363
g124
g127
sg128
g312
sa(dp364
g124
g131
sg128
g318
sa(dp365
g124
g134
sg128
g328
sasstp366
bsbag1
(g2
g3
Ntp367
Rp368
(dp369
g7
g8
sg9
g10
sg11
g1
(g12
g3
Ntp370
Rp371
((lp372
g41
ag16
(g17
(dp373
g19
g20
(g21
(I0
tp374
g23
tp375
Rp376
(I1
(L4L
tp377
g30
I00
(lp378
S'184339'
p379
aS'5318952'
p380
aS'5418922'
p381
aS'5518921'
p382
atp383
bsg39
Nstp384
Rp385
a(lp386
g20
(g21
(I0
tp387
g23
tp388
Rp389
(I1
(L1L
L4L
tp390
g61
I00
S'\x00\x00\x00\x00\x00\x00\xf0?\x00\x00\x00\x00\x00\x00\xf0?\x00\x00\x00\x00\x00\x00\xf0?\x00\x00\x00\x00\x00\x00\xf0?'
p391
tp392
bag20
(g21
(I0
tp393
g23
tp394
Rp395
(I1
(L2L
L4L
tp396
g30
I00
(lp397
Vat java.util.concurrent.FutureTask.run(FutureTask.java:266)
p398
aVat java.util.concurrent.FutureTask.run(FutureTask.java:266)
p399
aVat java.util.concurrent.FutureTask.run(FutureTask.java:266)
p400
aVat java.util.concurrent.FutureTask.run(FutureTask.java:266)
p401
aS'AVQD9fmvePvB1HupEiKf'
p402
aS'AVQFDr4YePvB1HupEiO1'
p403
aS'AVQFHq9cePvB1HupEiPK'
p404
aS'AVQFJXM4ePvB1HupEiPS'
p405
atp406
bag20
(g21
(I0
tp407
g23
tp408
Rp409
(I1
(L1L
L4L
tp410
g84
I00
S'e\x02\x00\x00\x00\x00\x00\x00e\x02\x00\x00\x00\x00\x00\x00e\x02\x00\x00\x00\x00\x00\x00e\x02\x00\x00\x00\x00\x00\x00'
p411
tp412
ba(lp413
g16
(g17
(dp414
g19
g20
(g21
(I0
tp415
g23
tp416
Rp417
(I1
(L1L
tp418
g30
I00
(lp419
g34
atp420
bsg39
Nstp421
Rp422
ag16
(g17
(dp423
g19
g20
(g21
(I0
tp424
g23
tp425
Rp426
(I1
(L2L
tp427
g30
I00
(lp428
g35
ag37
atp429
bsg39
Nstp430
Rp431
ag16
(g17
(dp432
g19
g20
(g21
(I0
tp433
g23
tp434
Rp435
(I1
(L1L
tp436
g30
I00
(lp437
g36
atp438
bsg39
Nstp439
Rp440
a(dp441
g118
(dp442
g120
g372
sg121
(lp443
(dp444
g124
g127
sg128
g389
sa(dp445
g124
g131
sg128
g395
sa(dp446
g124
g134
sg128
g409
sasstp447
bsbag1
(g2
g3
Ntp448
Rp449
(dp450
g7
g8
sg9
g10
sg11
g1
(g12
g3
Ntp451
Rp452
((lp453
g41
ag16
(g17
(dp454
g19
g20
(g21
(I0
tp455
g23
tp456
Rp457
(I1
(L3L
tp458
g30
I00
(lp459
S'184362'
p460
aS'5318978'
p461
aS'5418950'
p462
atp463
bsg39
Nstp464
Rp465
a(lp466
g20
(g21
(I0
tp467
g23
tp468
Rp469
(I1
(L1L
L3L
tp470
g61
I00
S'\x00\x00\x00\x00\x00\x00\xf0?\x00\x00\x00\x00\x00\x00\xf0?\x00\x00\x00\x00\x00\x00\xf0?'
p471
tp472
bag20
(g21
(I0
tp473
g23
tp474
Rp475
(I1
(L2L
L3L
tp476
g30
I00
(lp477
V[ERROR] Re-run Maven using the -X switch to enable full debug logging.
p478
aV[ERROR] Re-run Maven using the -X switch to enable full debug logging.
p479
aV[ERROR] Re-run Maven using the -X switch to enable full debug logging.
p480
aS'AVQD9fmvePvB1HupEiKf'
p481
aS'AVQFDr4YePvB1HupEiO1'
p482
aS'AVQFHq9cePvB1HupEiPK'
p483
atp484
bag20
(g21
(I0
tp485
g23
tp486
Rp487
(I1
(L1L
L3L
tp488
g84
I00
S'\xb7\x02\x00\x00\x00\x00\x00\x00\xb7\x02\x00\x00\x00\x00\x00\x00\xb7\x02\x00\x00\x00\x00\x00\x00'
p489
tp490
ba(lp491
g16
(g17
(dp492
g19
g20
(g21
(I0
tp493
g23
tp494
Rp495
(I1
(L1L
tp496
g30
I00
(lp497
g34
atp498
bsg39
Nstp499
Rp500
ag16
(g17
(dp501
g19
g20
(g21
(I0
tp502
g23
tp503
Rp504
(I1
(L2L
tp505
g30
I00
(lp506
g35
ag37
atp507
bsg39
Nstp508
Rp509
ag16
(g17
(dp510
g19
g20
(g21
(I0
tp511
g23
tp512
Rp513
(I1
(L1L
tp514
g30
I00
(lp515
g36
atp516
bsg39
Nstp517
Rp518
a(dp519
g118
(dp520
g120
g453
sg121
(lp521
(dp522
g124
g127
sg128
g469
sa(dp523
g124
g131
sg128
g475
sa(dp524
g124
g134
sg128
g487
sasstp525
bsbag1
(g2
g3
Ntp526
Rp527
(dp528
g7
g8
sg9
g10
sg11
g1
(g12
g3
Ntp529
Rp530
((lp531
g41
ag16
(g17
(dp532
g19
g20
(g21
(I0
tp533
g23
tp534
Rp535
(I1
(L2L
tp536
g30
I00
(lp537
S'183976'
p538
aS'184042'
p539
atp540
bsg39
Nstp541
Rp542
a(lp543
g20
(g21
(I0
tp544
g23
tp545
Rp546
(I1
(L1L
L2L
tp547
g61
I00
S'\x00\x00\x00\x00\x00\x00\xf0?\x00\x00\x00\x00\x00\x00\xf0?'
p548
tp549
bag20
(g21
(I0
tp550
g23
tp551
Rp552
(I1
(L2L
L2L
tp553
g30
I00
(lp554
VDownloaded: http://mydtbld0051.hpeswlab.net:8081/nexus/content/groups/mqm-public/org/ow2/asm/asm/5.0.3/asm-5.0.3.jar (52 KB at 3465.6 KB/sec)
p555
aVDownloaded: http://mydtbld0051.hpeswlab.net:8081/nexus/content/groups/mqm-public/org/ow2/asm/asm/5.0.3/asm-5.0.3.jar (52 KB at 3249.0 KB/sec)
p556
aS'AVQD9fmvePvB1HupEiKf'
p557
aS'AVQD9fmvePvB1HupEiKf'
p558
atp559
bag20
(g21
(I0
tp560
g23
tp561
Rp562
(I1
(L1L
L2L
tp563
g84
I00
S'\x9a\x03\x00\x00\x00\x00\x00\x00\x9a\x03\x00\x00\x00\x00\x00\x00'
p564
tp565
ba(lp566
g16
(g17
(dp567
g19
g20
(g21
(I0
tp568
g23
tp569
Rp570
(I1
(L1L
tp571
g30
I00
(lp572
g34
atp573
bsg39
Nstp574
Rp575
ag16
(g17
(dp576
g19
g20
(g21
(I0
tp577
g23
tp578
Rp579
(I1
(L2L
tp580
g30
I00
(lp581
g35
ag37
atp582
bsg39
Nstp583
Rp584
ag16
(g17
(dp585
g19
g20
(g21
(I0
tp586
g23
tp587
Rp588
(I1
(L1L
tp589
g30
I00
(lp590
g36
atp591
bsg39
Nstp592
Rp593
a(dp594
g118
(dp595
g120
g531
sg121
(lp596
(dp597
g124
g127
sg128
g546
sa(dp598
g124
g131
sg128
g552
sa(dp599
g124
g134
sg128
g562
sasstp600
bsbag1
(g2
g3
Ntp601
Rp602
(dp603
g7
g8
sg9
g10
sg11
g1
(g12
g3
Ntp604
Rp605
((lp606
g41
ag16
(g17
(dp607
g19
g20
(g21
(I0
tp608
g23
tp609
Rp610
(I1
(L2L
tp611
g30
I00
(lp612
S'5318714'
p613
aS'5518685'
p614
atp615
bsg39
Nstp616
Rp617
a(lp618
g20
(g21
(I0
tp619
g23
tp620
Rp621
(I1
(L1L
L2L
tp622
g61
I00
S'\x00\x00\x00\x00\x00\x00\xf0?\x00\x00\x00\x00\x00\x00\xf0?'
p623
tp624
bag20
(g21
(I0
tp625
g23
tp626
Rp627
(I1
(L2L
L2L
tp628
g30
I00
(lp629
Vapp/ui/generated/quality-center/tests/services/test-run-full-error-report.js
p630
aVapp/ui/generated/quality-center/tests/services/test-run-full-error-report.js
p631
aS'AVQFDr4YePvB1HupEiO1'
p632
aS'AVQFJXM4ePvB1HupEiPS'
p633
atp634
bag20
(g21
(I0
tp635
g23
tp636
Rp637
(I1
(L1L
L2L
tp638
g84
I00
S'\xa8\x03\x00\x00\x00\x00\x00\x00\xa8\x03\x00\x00\x00\x00\x00\x00'
p639
tp640
ba(lp641
g16
(g17
(dp642
g19
g20
(g21
(I0
tp643
g23
tp644
Rp645
(I1
(L1L
tp646
g30
I00
(lp647
g34
atp648
bsg39
Nstp649
Rp650
ag16
(g17
(dp651
g19
g20
(g21
(I0
tp652
g23
tp653
Rp654
(I1
(L2L
tp655
g30
I00
(lp656
g35
ag37
atp657
bsg39
Nstp658
Rp659
ag16
(g17
(dp660
g19
g20
(g21
(I0
tp661
g23
tp662
Rp663
(I1
(L1L
tp664
g30
I00
(lp665
g36
atp666
bsg39
Nstp667
Rp668
a(dp669
g118
(dp670
g120
g606
sg121
(lp671
(dp672
g124
g127
sg128
g621
sa(dp673
g124
g131
sg128
g627
sa(dp674
g124
g134
sg128
g637
sasstp675
bsbag1
(g2
g3
Ntp676
Rp677
(dp678
g7
g8
sg9
g10
sg11
g1
(g12
g3
Ntp679
Rp680
((lp681
g41
ag16
(g17
(dp682
g19
g20
(g21
(I0
tp683
g23
tp684
Rp685
(I1
(L2L
tp686
g30
I00
(lp687
S'184163'
p688
aS'184260'
p689
atp690
bsg39
Nstp691
Rp692
a(lp693
g20
(g21
(I0
tp694
g23
tp695
Rp696
(I1
(L1L
L2L
tp697
g61
I00
S'\x00\x00\x00\x00\x00\x00\xf0?\x00\x00\x00\x00\x00\x00\xf0?'
p698
tp699
bag20
(g21
(I0
tp700
g23
tp701
Rp702
(I1
(L2L
L2L
tp703
g30
I00
(lp704
V[INFO] mqm-storage-api ................................... SKIPPED
p705
aV[INFO] mqm-search-impl ................................... SKIPPED
p706
aS'AVQD9fmvePvB1HupEiKf'
p707
aS'AVQD9fmvePvB1HupEiKf'
p708
atp709
bag20
(g21
(I0
tp710
g23
tp711
Rp712
(I1
(L1L
L2L
tp713
g84
I00
S'\xad\x03\x00\x00\x00\x00\x00\x00\xad\x03\x00\x00\x00\x00\x00\x00'
p714
tp715
ba(lp716
g16
(g17
(dp717
g19
g20
(g21
(I0
tp718
g23
tp719
Rp720
(I1
(L1L
tp721
g30
I00
(lp722
g34
atp723
bsg39
Nstp724
Rp725
ag16
(g17
(dp726
g19
g20
(g21
(I0
tp727
g23
tp728
Rp729
(I1
(L2L
tp730
g30
I00
(lp731
g35
ag37
atp732
bsg39
Nstp733
Rp734
ag16
(g17
(dp735
g19
g20
(g21
(I0
tp736
g23
tp737
Rp738
(I1
(L1L
tp739
g30
I00
(lp740
g36
atp741
bsg39
Nstp742
Rp743
a(dp744
g118
(dp745
g120
g681
sg121
(lp746
(dp747
g124
g127
sg128
g696
sa(dp748
g124
g131
sg128
g702
sa(dp749
g124
g134
sg128
g712
sasstp750
bsbag1
(g2
g3
Ntp751
Rp752
(dp753
g7
g8
sg9
g10
sg11
g1
(g12
g3
Ntp754
Rp755
((lp756
g41
ag16
(g17
(dp757
g19
g20
(g21
(I0
tp758
g23
tp759
Rp760
(I1
(L2L
tp761
g30
I00
(lp762
S'5418875'
p763
aS'5518874'
p764
atp765
bsg39
Nstp766
Rp767
a(lp768
g20
(g21
(I0
tp769
g23
tp770
Rp771
(I1
(L1L
L2L
tp772
g61
I00
S'\x00\x00\x00\x00\x00\x00\xf0?\x00\x00\x00\x00\x00\x00\xf0?'
p773
tp774
bag20
(g21
(I0
tp775
g23
tp776
Rp777
(I1
(L2L
L2L
tp778
g30
I00
(lp779
V[INFO] mqm-web-ui ........................................ FAILURE [1:14.373s]
p780
aV[INFO] mqm-web-ui ........................................ FAILURE [1:13.926s]
p781
aS'AVQFHq9cePvB1HupEiPK'
p782
aS'AVQFJXM4ePvB1HupEiPS'
p783
atp784
bag20
(g21
(I0
tp785
g23
tp786
Rp787
(I1
(L1L
L2L
tp788
g84
I00
S'g\x04\x00\x00\x00\x00\x00\x00g\x04\x00\x00\x00\x00\x00\x00'
p789
tp790
ba(lp791
g16
(g17
(dp792
g19
g20
(g21
(I0
tp793
g23
tp794
Rp795
(I1
(L1L
tp796
g30
I00
(lp797
g34
atp798
bsg39
Nstp799
Rp800
ag16
(g17
(dp801
g19
g20
(g21
(I0
tp802
g23
tp803
Rp804
(I1
(L2L
tp805
g30
I00
(lp806
g35
ag37
atp807
bsg39
Nstp808
Rp809
ag16
(g17
(dp810
g19
g20
(g21
(I0
tp811
g23
tp812
Rp813
(I1
(L1L
tp814
g30
I00
(lp815
g36
atp816
bsg39
Nstp817
Rp818
a(dp819
g118
(dp820
g120
g756
sg121
(lp821
(dp822
g124
g127
sg128
g771
sa(dp823
g124
g131
sg128
g777
sa(dp824
g124
g134
sg128
g787
sasstp825
bsbag1
(g2
g3
Ntp826
Rp827
(dp828
g7
g8
sg9
g10
sg11
g1
(g12
g3
Ntp829
Rp830
((lp831
g41
ag16
(g17
(dp832
g19
g20
(g21
(I0
tp833
g23
tp834
Rp835
(I1
(L3L
tp836
g30
I00
(lp837
S'5318945'
p838
aS'5418917'
p839
aS'5518916'
p840
atp841
bsg39
Nstp842
Rp843
a(lp844
g20
(g21
(I0
tp845
g23
tp846
Rp847
(I1
(L1L
L3L
tp848
g61
I00
S'\x00\x00\x00\x00\x00\x00\xf0?\x00\x00\x00\x00\x00\x00\xf0?\x00\x00\x00\x00\x00\x00\xf0?'
p849
tp850
bag20
(g21
(I0
tp851
g23
tp852
Rp853
(I1
(L2L
L3L
tp854
g30
I00
(lp855
Vat org.apache.maven.lifecycle.internal.MojoExecutor.execute(MojoExecutor.java:153)
p856
aVat org.apache.maven.lifecycle.internal.MojoExecutor.execute(MojoExecutor.java:153)
p857
aVat org.apache.maven.lifecycle.internal.MojoExecutor.execute(MojoExecutor.java:153)
p858
aS'AVQFDr4YePvB1HupEiO1'
p859
aS'AVQFHq9cePvB1HupEiPK'
p860
aS'AVQFJXM4ePvB1HupEiPS'
p861
atp862
bag20
(g21
(I0
tp863
g23
tp864
Rp865
(I1
(L1L
L3L
tp866
g84
I00
S'~\x04\x00\x00\x00\x00\x00\x00~\x04\x00\x00\x00\x00\x00\x00~\x04\x00\x00\x00\x00\x00\x00'
p867
tp868
ba(lp869
g16
(g17
(dp870
g19
g20
(g21
(I0
tp871
g23
tp872
Rp873
(I1
(L1L
tp874
g30
I00
(lp875
g34
atp876
bsg39
Nstp877
Rp878
ag16
(g17
(dp879
g19
g20
(g21
(I0
tp880
g23
tp881
Rp882
(I1
(L2L
tp883
g30
I00
(lp884
g35
ag37
atp885
bsg39
Nstp886
Rp887
ag16
(g17
(dp888
g19
g20
(g21
(I0
tp889
g23
tp890
Rp891
(I1
(L1L
tp892
g30
I00
(lp893
g36
atp894
bsg39
Nstp895
Rp896
a(dp897
g118
(dp898
g120
g831
sg121
(lp899
(dp900
g124
g127
sg128
g847
sa(dp901
g124
g131
sg128
g853
sa(dp902
g124
g134
sg128
g865
sasstp903
bsbag1
(g2
g3
Ntp904
Rp905
(dp906
g7
g8
sg9
g10
sg11
g1
(g12
g3
Ntp907
Rp908
((lp909
g41
ag16
(g17
(dp910
g19
g20
(g21
(I0
tp911
g23
tp912
Rp913
(I1
(L9L
tp914
g30
I00
(lp915
S'184198'
p916
aS'184200'
p917
aS'184218'
p918
aS'184232'
p919
aS'184244'
p920
aS'184246'
p921
aS'184256'
p922
aS'184287'
p923
aS'184306'
p924
atp925
bsg39
Nstp926
Rp927
a(lp928
g20
(g21
(I0
tp929
g23
tp930
Rp931
(I1
(L1L
L9L
tp932
g61
I00
S'\x00\x00\x00\x00\x00\x00\xf0?\x00\x00\x00\x00\x00\x00\xf0?\x00\x00\x00\x00\x00\x00\xf0?\x00\x00\x00\x00\x00\x00\xf0?\x00\x00\x00\x00\x00\x00\xf0?\x00\x00\x00\x00\x00\x00\xf0?\x00\x00\x00\x00\x00\x00\xf0?\x00\x00\x00\x00\x00\x00\xf0?\x00\x00\x00\x00\x00\x00\xf0?'
p933
tp934
bag20
(g21
(I0
tp935
g23
tp936
Rp937
(I1
(L2L
L9L
tp938
g30
I00
(lp939
V[INFO] mqm-elastic-infra-api ............................. SKIPPED
p940
aV[INFO] mqm-infra-server-impl ............................. SKIPPED
p941
aV[INFO] mqm-dal-db-infra-impl ............................. SKIPPED
p942
aV[INFO] mqm-rest-platform-api ............................. SKIPPED
p943
aV[INFO] test-box-test-support ............................. SKIPPED
p944
aV[INFO] mqm-app-entities-impl ............................. SKIPPED
p945
aV[INFO] mqm-infra-common-impl ............................. SKIPPED
p946
aV[INFO] mqm-integration-tests ............................. SKIPPED
p947
aV[INFO] selenium-wrapper-impl ............................. SKIPPED
p948
aS'AVQD9fmvePvB1HupEiKf'
p949
aS'AVQD9fmvePvB1HupEiKf'
p950
aS'AVQD9fmvePvB1HupEiKf'
p951
aS'AVQD9fmvePvB1HupEiKf'
p952
aS'AVQD9fmvePvB1HupEiKf'
p953
aS'AVQD9fmvePvB1HupEiKf'
p954
aS'AVQD9fmvePvB1HupEiKf'
p955
aS'AVQD9fmvePvB1HupEiKf'
p956
aS'AVQD9fmvePvB1HupEiKf'
p957
atp958
bag20
(g21
(I0
tp959
g23
tp960
Rp961
(I1
(L1L
L9L
tp962
g84
I00
S'\xf4\x04\x00\x00\x00\x00\x00\x00\xf4\x04\x00\x00\x00\x00\x00\x00\xf4\x04\x00\x00\x00\x00\x00\x00\xf4\x04\x00\x00\x00\x00\x00\x00\xf4\x04\x00\x00\x00\x00\x00\x00\xf4\x04\x00\x00\x00\x00\x00\x00\xf4\x04\x00\x00\x00\x00\x00\x00\xf4\x04\x00\x00\x00\x00\x00\x00\xf4\x04\x00\x00\x00\x00\x00\x00'
p963
tp964
ba(lp965
g16
(g17
(dp966
g19
g20
(g21
(I0
tp967
g23
tp968
Rp969
(I1
(L1L
tp970
g30
I00
(lp971
g34
atp972
bsg39
Nstp973
Rp974
ag16
(g17
(dp975
g19
g20
(g21
(I0
tp976
g23
tp977
Rp978
(I1
(L2L
tp979
g30
I00
(lp980
g35
ag37
atp981
bsg39
Nstp982
Rp983
ag16
(g17
(dp984
g19
g20
(g21
(I0
tp985
g23
tp986
Rp987
(I1
(L1L
tp988
g30
I00
(lp989
g36
atp990
bsg39
Nstp991
Rp992
a(dp993
g118
(dp994
g120
g909
sg121
(lp995
(dp996
g124
g127
sg128
g931
sa(dp997
g124
g131
sg128
g937
sa(dp998
g124
g134
sg128
g961
sasstp999
bsbag1
(g2
g3
Ntp1000
Rp1001
(dp1002
g7
g8
sg9
g10
sg11
g1
(g12
g3
Ntp1003
Rp1004
((lp1005
g41
ag16
(g17
(dp1006
g19
g20
(g21
(I0
tp1007
g23
tp1008
Rp1009
(I1
(L4L
tp1010
g30
I00
(lp1011
S'184259'
p1012
aS'184267'
p1013
aS'184269'
p1014
aS'184271'
p1015
atp1016
bsg39
Nstp1017
Rp1018
a(lp1019
g20
(g21
(I0
tp1020
g23
tp1021
Rp1022
(I1
(L1L
L4L
tp1023
g61
I00
S'\x00\x00\x00\x00\x00\x00\xf0?\x00\x00\x00\x00\x00\x00\xf0?\x00\x00\x00\x00\x00\x00\xf0?\x00\x00\x00\x00\x00\x00\xf0?'
p1024
tp1025
bag20
(g21
(I0
tp1026
g23
tp1027
Rp1028
(I1
(L2L
L4L
tp1029
g30
I00
(lp1030
V[INFO] mqm-sync-impl ..................................... SKIPPED
p1031
aV[INFO] test-box-rest ..................................... SKIPPED
p1032
aV[INFO] mqm-saas-impl ..................................... SKIPPED
p1033
aV[INFO] mqm-ui-helper ..................................... SKIPPED
p1034
aS'AVQD9fmvePvB1HupEiKf'
p1035
aS'AVQD9fmvePvB1HupEiKf'
p1036
aS'AVQD9fmvePvB1HupEiKf'
p1037
aS'AVQD9fmvePvB1HupEiKf'
p1038
atp1039
bag20
(g21
(I0
tp1040
g23
tp1041
Rp1042
(I1
(L1L
L4L
tp1043
g84
I00
S'\xf6\x04\x00\x00\x00\x00\x00\x00\xf6\x04\x00\x00\x00\x00\x00\x00\xf6\x04\x00\x00\x00\x00\x00\x00\xf6\x04\x00\x00\x00\x00\x00\x00'
p1044
tp1045
ba(lp1046
g16
(g17
(dp1047
g19
g20
(g21
(I0
tp1048
g23
tp1049
Rp1050
(I1
(L1L
tp1051
g30
I00
(lp1052
g34
atp1053
bsg39
Nstp1054
Rp1055
ag16
(g17
(dp1056
g19
g20
(g21
(I0
tp1057
g23
tp1058
Rp1059
(I1
(L2L
tp1060
g30
I00
(lp1061
g35
ag37
atp1062
bsg39
Nstp1063
Rp1064
ag16
(g17
(dp1065
g19
g20
(g21
(I0
tp1066
g23
tp1067
Rp1068
(I1
(L1L
tp1069
g30
I00
(lp1070
g36
atp1071
bsg39
Nstp1072
Rp1073
a(dp1074
g118
(dp1075
g120
g1005
sg121
(lp1076
(dp1077
g124
g127
sg128
g1022
sa(dp1078
g124
g131
sg128
g1028
sa(dp1079
g124
g134
sg128
g1042
sasstp1080
bsbag1
(g2
g3
Ntp1081
Rp1082
(dp1083
g7
g8
sg9
g10
sg11
g1
(g12
g3
Ntp1084
Rp1085
((lp1086
g41
ag16
(g17
(dp1087
g19
g20
(g21
(I0
tp1088
g23
tp1089
Rp1090
(I1
(L4L
tp1091
g30
I00
(lp1092
S'184196'
p1093
aS'184239'
p1094
aS'184300'
p1095
aS'184305'
p1096
atp1097
bsg39
Nstp1098
Rp1099
a(lp1100
g20
(g21
(I0
tp1101
g23
tp1102
Rp1103
(I1
(L1L
L4L
tp1104
g61
I00
S'\x00\x00\x00\x00\x00\x00\xf0?\x00\x00\x00\x00\x00\x00\xf0?\x00\x00\x00\x00\x00\x00\xf0?\x00\x00\x00\x00\x00\x00\xf0?'
p1105
tp1106
bag20
(g21
(I0
tp1107
g23
tp1108
Rp1109
(I1
(L2L
L4L
tp1110
g30
I00
(lp1111
V[INFO] mqm-search-api .................................... SKIPPED
p1112
aV[INFO] test-box-model .................................... SKIPPED
p1113
aV[INFO] identifier-api .................................... SKIPPED
p1114
aV[INFO] test-event-bus .................................... SKIPPED
p1115
aS'AVQD9fmvePvB1HupEiKf'
p1116
aS'AVQD9fmvePvB1HupEiKf'
p1117
aS'AVQD9fmvePvB1HupEiKf'
p1118
aS'AVQD9fmvePvB1HupEiKf'
p1119
atp1120
bag20
(g21
(I0
tp1121
g23
tp1122
Rp1123
(I1
(L1L
L4L
tp1124
g84
I00
S'\xa8\x05\x00\x00\x00\x00\x00\x00\xa8\x05\x00\x00\x00\x00\x00\x00\xa8\x05\x00\x00\x00\x00\x00\x00\xa8\x05\x00\x00\x00\x00\x00\x00'
p1125
tp1126
ba(lp1127
g16
(g17
(dp1128
g19
g20
(g21
(I0
tp1129
g23
tp1130
Rp1131
(I1
(L1L
tp1132
g30
I00
(lp1133
g34
atp1134
bsg39
Nstp1135
Rp1136
ag16
(g17
(dp1137
g19
g20
(g21
(I0
tp1138
g23
tp1139
Rp1140
(I1
(L2L
tp1141
g30
I00
(lp1142
g35
ag37
atp1143
bsg39
Nstp1144
Rp1145
ag16
(g17
(dp1146
g19
g20
(g21
(I0
tp1147
g23
tp1148
Rp1149
(I1
(L1L
tp1150
g30
I00
(lp1151
g36
atp1152
bsg39
Nstp1153
Rp1154
a(dp1155
g118
(dp1156
g120
g1086
sg121
(lp1157
(dp1158
g124
g127
sg128
g1103
sa(dp1159
g124
g131
sg128
g1109
sa(dp1160
g124
g134
sg128
g1123
sasstp1161
bsbag1
(g2
g3
Ntp1162
Rp1163
(dp1164
g7
g8
sg9
g10
sg11
g1
(g12
g3
Ntp1165
Rp1166
((lp1167
g41
ag16
(g17
(dp1168
g19
g20
(g21
(I0
tp1169
g23
tp1170
Rp1171
(I1
(L2L
tp1172
g30
I00
(lp1173
S'5318743'
p1174
aS'5418715'
p1175
atp1176
bsg39
Nstp1177
Rp1178
a(lp1179
g20
(g21
(I0
tp1180
g23
tp1181
Rp1182
(I1
(L1L
L2L
tp1183
g61
I00
S'\x00\x00\x00\x00\x00\x00\xf0?\x00\x00\x00\x00\x00\x00\xf0?'
p1184
tp1185
bag20
(g21
(I0
tp1186
g23
tp1187
Rp1188
(I1
(L2L
L2L
tp1189
g30
I00
(lp1190
VWarning: Task "jshint:ts-compiled" failed. Use --force to continue.
p1191
aVWarning: Task "jshint:ts-compiled" failed. Use --force to continue.
p1192
aS'AVQFDr4YePvB1HupEiO1'
p1193
aS'AVQFHq9cePvB1HupEiPK'
p1194
atp1195
bag20
(g21
(I0
tp1196
g23
tp1197
Rp1198
(I1
(L1L
L2L
tp1199
g84
I00
S'\xe5\x05\x00\x00\x00\x00\x00\x00\xe5\x05\x00\x00\x00\x00\x00\x00'
p1200
tp1201
ba(lp1202
g16
(g17
(dp1203
g19
g20
(g21
(I0
tp1204
g23
tp1205
Rp1206
(I1
(L1L
tp1207
g30
I00
(lp1208
g34
atp1209
bsg39
Nstp1210
Rp1211
ag16
(g17
(dp1212
g19
g20
(g21
(I0
tp1213
g23
tp1214
Rp1215
(I1
(L2L
tp1216
g30
I00
(lp1217
g35
ag37
atp1218
bsg39
Nstp1219
Rp1220
ag16
(g17
(dp1221
g19
g20
(g21
(I0
tp1222
g23
tp1223
Rp1224
(I1
(L1L
tp1225
g30
I00
(lp1226
g36
atp1227
bsg39
Nstp1228
Rp1229
a(dp1230
g118
(dp1231
g120
g1167
sg121
(lp1232
(dp1233
g124
g127
sg128
g1182
sa(dp1234
g124
g131
sg128
g1188
sa(dp1235
g124
g134
sg128
g1198
sasstp1236
bsbag1
(g2
g3
Ntp1237
Rp1238
(dp1239
g7
g8
sg9
g10
sg11
g1
(g12
g3
Ntp1240
Rp1241
((lp1242
g41
ag16
(g17
(dp1243
g19
g20
(g21
(I0
tp1244
g23
tp1245
Rp1246
(I1
(L3L
tp1247
g30
I00
(lp1248
S'184194'
p1249
aS'184275'
p1250
aS'184302'
p1251
atp1252
bsg39
Nstp1253
Rp1254
a(lp1255
g20
(g21
(I0
tp1256
g23
tp1257
Rp1258
(I1
(L1L
L3L
tp1259
g61
I00
S'\x00\x00\x00\x00\x00\x00\xf0?\x00\x00\x00\x00\x00\x00\xf0?\x00\x00\x00\x00\x00\x00\xf0?'
p1260
tp1261
bag20
(g21
(I0
tp1262
g23
tp1263
Rp1264
(I1
(L2L
L3L
tp1265
g30
I00
(lp1266
V[INFO] mqm-siteadmin-api ................................. SKIPPED
p1267
aV[INFO] mqm-sanitize-impl ................................. SKIPPED
p1268
aV[INFO] automation-common ................................. SKIPPED
p1269
aS'AVQD9fmvePvB1HupEiKf'
p1270
aS'AVQD9fmvePvB1HupEiKf'
p1271
aS'AVQD9fmvePvB1HupEiKf'
p1272
atp1273
bag20
(g21
(I0
tp1274
g23
tp1275
Rp1276
(I1
(L1L
L3L
tp1277
g84
I00
S'r\x06\x00\x00\x00\x00\x00\x00r\x06\x00\x00\x00\x00\x00\x00r\x06\x00\x00\x00\x00\x00\x00'
p1278
tp1279
ba(lp1280
g16
(g17
(dp1281
g19
g20
(g21
(I0
tp1282
g23
tp1283
Rp1284
(I1
(L1L
tp1285
g30
I00
(lp1286
g34
atp1287
bsg39
Nstp1288
Rp1289
ag16
(g17
(dp1290
g19
g20
(g21
(I0
tp1291
g23
tp1292
Rp1293
(I1
(L2L
tp1294
g30
I00
(lp1295
g35
ag37
atp1296
bsg39
Nstp1297
Rp1298
ag16
(g17
(dp1299
g19
g20
(g21
(I0
tp1300
g23
tp1301
Rp1302
(I1
(L1L
tp1303
g30
I00
(lp1304
g36
atp1305
bsg39
Nstp1306
Rp1307
a(dp1308
g118
(dp1309
g120
g1242
sg121
(lp1310
(dp1311
g124
g127
sg128
g1258
sa(dp1312
g124
g131
sg128
g1264
sa(dp1313
g124
g134
sg128
g1276
sasstp1314
bsbag1
(g2
g3
Ntp1315
Rp1316
(dp1317
g7
g8
sg9
g10
sg11
g1
(g12
g3
Ntp1318
Rp1319
((lp1320
g41
ag16
(g17
(dp1321
g19
g20
(g21
(I0
tp1322
g23
tp1323
Rp1324
(I1
(L4L
tp1325
g30
I00
(lp1326
S'184297'
p1327
aS'184308'
p1328
aS'5318911'
p1329
aS'5518882'
p1330
atp1331
bsg39
Nstp1332
Rp1333
a(lp1334
g20
(g21
(I0
tp1335
g23
tp1336
Rp1337
(I1
(L1L
L4L
tp1338
g61
I00
S'\x00\x00\x00\x00\x00\x00\xf0?\x00\x00\x00\x00\x00\x00\xf0?\x00\x00\x00\x00\x00\x00\xf0?\x00\x00\x00\x00\x00\x00\xf0?'
p1339
tp1340
bag20
(g21
(I0
tp1341
g23
tp1342
Rp1343
(I1
(L2L
L4L
tp1344
g30
I00
(lp1345
V[INFO] mqm-boot .......................................... SKIPPED
p1346
aV[INFO] reporter .......................................... SKIPPED
p1347
aV[INFO] mqm-boot .......................................... SKIPPED
p1348
aV[INFO] mqm-boot .......................................... SKIPPED
p1349
aS'AVQD9fmvePvB1HupEiKf'
p1350
aS'AVQD9fmvePvB1HupEiKf'
p1351
aS'AVQFDr4YePvB1HupEiO1'
p1352
aS'AVQFJXM4ePvB1HupEiPS'
p1353
atp1354
bag20
(g21
(I0
tp1355
g23
tp1356
Rp1357
(I1
(L1L
L4L
tp1358
g84
I00
S'\xef\x06\x00\x00\x00\x00\x00\x00\xef\x06\x00\x00\x00\x00\x00\x00\xef\x06\x00\x00\x00\x00\x00\x00\xef\x06\x00\x00\x00\x00\x00\x00'
p1359
tp1360
ba(lp1361
g16
(g17
(dp1362
g19
g20
(g21
(I0
tp1363
g23
tp1364
Rp1365
(I1
(L1L
tp1366
g30
I00
(lp1367
g34
atp1368
bsg39
Nstp1369
Rp1370
ag16
(g17
(dp1371
g19
g20
(g21
(I0
tp1372
g23
tp1373
Rp1374
(I1
(L2L
tp1375
g30
I00
(lp1376
g35
ag37
atp1377
bsg39
Nstp1378
Rp1379
ag16
(g17
(dp1380
g19
g20
(g21
(I0
tp1381
g23
tp1382
Rp1383
(I1
(L1L
tp1384
g30
I00
(lp1385
g36
atp1386
bsg39
Nstp1387
Rp1388
a(dp1389
g118
(dp1390
g120
g1320
sg121
(lp1391
(dp1392
g124
g127
sg128
g1337
sa(dp1393
g124
g131
sg128
g1343
sa(dp1394
g124
g134
sg128
g1357
sasstp1395
bsbag1
(g2
g3
Ntp1396
Rp1397
(dp1398
g7
g8
sg9
g10
sg11
g1
(g12
g3
Ntp1399
Rp1400
((lp1401
g41
ag16
(g17
(dp1402
g19
g20
(g21
(I0
tp1403
g23
tp1404
Rp1405
(I1
(L2L
tp1406
g30
I00
(lp1407
S'5318960'
p1408
aS'5518931'
p1409
atp1410
bsg39
Nstp1411
Rp1412
a(lp1413
g20
(g21
(I0
tp1414
g23
tp1415
Rp1416
(I1
(L1L
L2L
tp1417
g61
I00
S'\x00\x00\x00\x00\x00\x00\xf0?\x00\x00\x00\x00\x00\x00\xf0?'
p1418
tp1419
bag20
(g21
(I0
tp1420
g23
tp1421
Rp1422
(I1
(L2L
L2L
tp1423
g30
I00
(lp1424
Vat pl.allegro.tdr.gruntmaven.AbstractExecutableMojo.runExecutable(AbstractExecutableMojo.java:97)
p1425
aVat pl.allegro.tdr.gruntmaven.AbstractExecutableMojo.runExecutable(AbstractExecutableMojo.java:97)
p1426
aS'AVQFDr4YePvB1HupEiO1'
p1427
aS'AVQFJXM4ePvB1HupEiPS'
p1428
atp1429
bag20
(g21
(I0
tp1430
g23
tp1431
Rp1432
(I1
(L1L
L2L
tp1433
g84
I00
S'\xf3\x06\x00\x00\x00\x00\x00\x00\xf3\x06\x00\x00\x00\x00\x00\x00'
p1434
tp1435
ba(lp1436
g16
(g17
(dp1437
g19
g20
(g21
(I0
tp1438
g23
tp1439
Rp1440
(I1
(L1L
tp1441
g30
I00
(lp1442
g34
atp1443
bsg39
Nstp1444
Rp1445
ag16
(g17
(dp1446
g19
g20
(g21
(I0
tp1447
g23
tp1448
Rp1449
(I1
(L2L
tp1450
g30
I00
(lp1451
g35
ag37
atp1452
bsg39
Nstp1453
Rp1454
ag16
(g17
(dp1455
g19
g20
(g21
(I0
tp1456
g23
tp1457
Rp1458
(I1
(L1L
tp1459
g30
I00
(lp1460
g36
atp1461
bsg39
Nstp1462
Rp1463
a(dp1464
g118
(dp1465
g120
g1401
sg121
(lp1466
(dp1467
g124
g127
sg128
g1416
sa(dp1468
g124
g131
sg128
g1422
sa(dp1469
g124
g134
sg128
g1432
sasstp1470
bsbag1
(g2
g3
Ntp1471
Rp1472
(dp1473
g7
g8
sg9
g10
sg11
g1
(g12
g3
Ntp1474
Rp1475
((lp1476
g41
ag16
(g17
(dp1477
g19
g20
(g21
(I0
tp1478
g23
tp1479
Rp1480
(I1
(L2L
tp1481
g30
I00
(lp1482
S'18546'
p1483
aS'181414'
p1484
atp1485
bsg39
Nstp1486
Rp1487
a(lp1488
g20
(g21
(I0
tp1489
g23
tp1490
Rp1491
(I1
(L1L
L2L
tp1492
g61
I00
S'\x00\x00\x00\x00\x00\x00\xf0?\x00\x00\x00\x00\x00\x00\xf0?'
p1493
tp1494
bag20
(g21
(I0
tp1495
g23
tp1496
Rp1497
(I1
(L2L
L2L
tp1498
g30
I00
(lp1499
VDownloaded: http://mydtbld0051.hpeswlab.net:8081/nexus/content/groups/mqm-public/org/apache/maven/maven-settings/2.2.1/maven-settings-2.2.1.pom (3 KB at 152.0 KB/sec)
p1500
aVDownloaded: http://mydtbld0051.hpeswlab.net:8081/nexus/content/groups/mqm-public/org/apache/maven/maven-settings/2.2.0/maven-settings-2.2.0.pom (3 KB at 118.2 KB/sec)
p1501
aS'AVQD9fmvePvB1HupEiKf'
p1502
aS'AVQD9fmvePvB1HupEiKf'
p1503
atp1504
bag20
(g21
(I0
tp1505
g23
tp1506
Rp1507
(I1
(L1L
L2L
tp1508
g84
I00
S'\xa3\x07\x00\x00\x00\x00\x00\x00\xa3\x07\x00\x00\x00\x00\x00\x00'
p1509
tp1510
ba(lp1511
g16
(g17
(dp1512
g19
g20
(g21
(I0
tp1513
g23
tp1514
Rp1515
(I1
(L1L
tp1516
g30
I00
(lp1517
g34
atp1518
bsg39
Nstp1519
Rp1520
ag16
(g17
(dp1521
g19
g20
(g21
(I0
tp1522
g23
tp1523
Rp1524
(I1
(L2L
tp1525
g30
I00
(lp1526
g35
ag37
atp1527
bsg39
Nstp1528
Rp1529
ag16
(g17
(dp1530
g19
g20
(g21
(I0
tp1531
g23
tp1532
Rp1533
(I1
(L1L
tp1534
g30
I00
(lp1535
g36
atp1536
bsg39
Nstp1537
Rp1538
a(dp1539
g118
(dp1540
g120
g1476
sg121
(lp1541
(dp1542
g124
g127
sg128
g1491
sa(dp1543
g124
g131
sg128
g1497
sa(dp1544
g124
g134
sg128
g1507
sasstp1545
bsbag1
(g2
g3
Ntp1546
Rp1547
(dp1548
g7
g8
sg9
g10
sg11
g1
(g12
g3
Ntp1549
Rp1550
((lp1551
g41
ag16
(g17
(dp1552
g19
g20
(g21
(I0
tp1553
g23
tp1554
Rp1555
(I1
(L2L
tp1556
g30
I00
(lp1557
S'184349'
p1558
aS'184358'
p1559
atp1560
bsg39
Nstp1561
Rp1562
a(lp1563
g20
(g21
(I0
tp1564
g23
tp1565
Rp1566
(I1
(L1L
L2L
tp1567
g61
I00
S'\x00\x00\x00\x00\x00\x00\xf0?\x00\x00\x00\x00\x00\x00\xf0?'
p1568
tp1569
bag20
(g21
(I0
tp1570
g23
tp1571
Rp1572
(I1
(L2L
L2L
tp1573
g30
I00
(lp1574
VCaused by: org.sonatype.aether.resolution.DependencyResolutionException: Could not find artifact org.springframework:spring-context:jar:4.2.5.RELEASE
p1575
aVCaused by: org.sonatype.aether.transfer.ArtifactNotFoundException: Could not find artifact org.springframework:spring-context:jar:4.2.5.RELEASE
p1576
aS'AVQD9fmvePvB1HupEiKf'
p1577
aS'AVQD9fmvePvB1HupEiKf'
p1578
atp1579
bag20
(g21
(I0
tp1580
g23
tp1581
Rp1582
(I1
(L1L
L2L
tp1583
g84
I00
S'\xaa\x08\x00\x00\x00\x00\x00\x00\xaa\x08\x00\x00\x00\x00\x00\x00'
p1584
tp1585
ba(lp1586
g16
(g17
(dp1587
g19
g20
(g21
(I0
tp1588
g23
tp1589
Rp1590
(I1
(L1L
tp1591
g30
I00
(lp1592
g34
atp1593
bsg39
Nstp1594
Rp1595
ag16
(g17
(dp1596
g19
g20
(g21
(I0
tp1597
g23
tp1598
Rp1599
(I1
(L2L
tp1600
g30
I00
(lp1601
g35
ag37
atp1602
bsg39
Nstp1603
Rp1604
ag16
(g17
(dp1605
g19
g20
(g21
(I0
tp1606
g23
tp1607
Rp1608
(I1
(L1L
tp1609
g30
I00
(lp1610
g36
atp1611
bsg39
Nstp1612
Rp1613
a(dp1614
g118
(dp1615
g120
g1551
sg121
(lp1616
(dp1617
g124
g127
sg128
g1566
sa(dp1618
g124
g131
sg128
g1572
sa(dp1619
g124
g134
sg128
g1582
sasstp1620
bsbag1
(g2
g3
Ntp1621
Rp1622
(dp1623
g7
g8
sg9
g10
sg11
g1
(g12
g3
Ntp1624
Rp1625
((lp1626
g41
ag16
(g17
(dp1627
g19
g20
(g21
(I0
tp1628
g23
tp1629
Rp1630
(I1
(L2L
tp1631
g30
I00
(lp1632
S'183876'
p1633
aS'183880'
p1634
atp1635
bsg39
Nstp1636
Rp1637
a(lp1638
g20
(g21
(I0
tp1639
g23
tp1640
Rp1641
(I1
(L1L
L2L
tp1642
g61
I00
S'\x00\x00\x00\x00\x00\x00\xf0?\x00\x00\x00\x00\x00\x00\xf0?'
p1643
tp1644
bag20
(g21
(I0
tp1645
g23
tp1646
Rp1647
(I1
(L2L
L2L
tp1648
g30
I00
(lp1649
VDownloaded: http://mydtbld0051.hpeswlab.net:8081/nexus/content/groups/mqm-public/org/objenesis/objenesis-parent/2.1/objenesis-parent-2.1.pom (17 KB at 1255.0 KB/sec)
p1650
aVDownloaded: http://mydtbld0051.hpeswlab.net:8081/nexus/content/groups/mqm-public/org/objenesis/objenesis-parent/2.1/objenesis-parent-2.1.pom (17 KB at 1087.7 KB/sec)
p1651
aS'AVQD9fmvePvB1HupEiKf'
p1652
aS'AVQD9fmvePvB1HupEiKf'
p1653
atp1654
bag20
(g21
(I0
tp1655
g23
tp1656
Rp1657
(I1
(L1L
L2L
tp1658
g84
I00
S'E\n\x00\x00\x00\x00\x00\x00E\n\x00\x00\x00\x00\x00\x00'
p1659
tp1660
ba(lp1661
g16
(g17
(dp1662
g19
g20
(g21
(I0
tp1663
g23
tp1664
Rp1665
(I1
(L1L
tp1666
g30
I00
(lp1667
g34
atp1668
bsg39
Nstp1669
Rp1670
ag16
(g17
(dp1671
g19
g20
(g21
(I0
tp1672
g23
tp1673
Rp1674
(I1
(L2L
tp1675
g30
I00
(lp1676
g35
ag37
atp1677
bsg39
Nstp1678
Rp1679
ag16
(g17
(dp1680
g19
g20
(g21
(I0
tp1681
g23
tp1682
Rp1683
(I1
(L1L
tp1684
g30
I00
(lp1685
g36
atp1686
bsg39
Nstp1687
Rp1688
a(dp1689
g118
(dp1690
g120
g1626
sg121
(lp1691
(dp1692
g124
g127
sg128
g1641
sa(dp1693
g124
g131
sg128
g1647
sa(dp1694
g124
g134
sg128
g1657
sasstp1695
bsbag1
(g2
g3
Ntp1696
Rp1697
(dp1698
g7
g8
sg9
g10
sg11
g1
(g12
g3
Ntp1699
Rp1700
((lp1701
g41
ag16
(g17
(dp1702
g19
g20
(g21
(I0
tp1703
g23
tp1704
Rp1705
(I1
(L2L
tp1706
g30
I00
(lp1707
S'183977'
p1708
aS'184044'
p1709
atp1710
bsg39
Nstp1711
Rp1712
a(lp1713
g20
(g21
(I0
tp1714
g23
tp1715
Rp1716
(I1
(L1L
L2L
tp1717
g61
I00
S'\x00\x00\x00\x00\x00\x00\xf0?\x00\x00\x00\x00\x00\x00\xf0?'
p1718
tp1719
bag20
(g21
(I0
tp1720
g23
tp1721
Rp1722
(I1
(L2L
L2L
tp1723
g30
I00
(lp1724
VDownloaded: http://mydtbld0051.hpeswlab.net:8081/nexus/content/groups/mqm-public/org/objenesis/objenesis/2.1/objenesis-2.1.jar (41 KB at 2912.6 KB/sec)
p1725
aVDownloaded: http://mydtbld0051.hpeswlab.net:8081/nexus/content/groups/mqm-public/org/objenesis/objenesis/2.1/objenesis-2.1.jar (41 KB at 2038.8 KB/sec)
p1726
aS'AVQD9fmvePvB1HupEiKf'
p1727
aS'AVQD9fmvePvB1HupEiKf'
p1728
atp1729
bag20
(g21
(I0
tp1730
g23
tp1731
Rp1732
(I1
(L1L
L2L
tp1733
g84
I00
S'a\n\x00\x00\x00\x00\x00\x00a\n\x00\x00\x00\x00\x00\x00'
p1734
tp1735
ba(lp1736
g16
(g17
(dp1737
g19
g20
(g21
(I0
tp1738
g23
tp1739
Rp1740
(I1
(L1L
tp1741
g30
I00
(lp1742
g34
atp1743
bsg39
Nstp1744
Rp1745
ag16
(g17
(dp1746
g19
g20
(g21
(I0
tp1747
g23
tp1748
Rp1749
(I1
(L2L
tp1750
g30
I00
(lp1751
g35
ag37
atp1752
bsg39
Nstp1753
Rp1754
ag16
(g17
(dp1755
g19
g20
(g21
(I0
tp1756
g23
tp1757
Rp1758
(I1
(L1L
tp1759
g30
I00
(lp1760
g36
atp1761
bsg39
Nstp1762
Rp1763
a(dp1764
g118
(dp1765
g120
g1701
sg121
(lp1766
(dp1767
g124
g127
sg128
g1716
sa(dp1768
g124
g131
sg128
g1722
sa(dp1769
g124
g134
sg128
g1732
sasstp1770
bsbag1
(g2
g3
Ntp1771
Rp1772
(dp1773
g7
g8
sg9
g10
sg11
g1
(g12
g3
Ntp1774
Rp1775
((lp1776
g41
ag16
(g17
(dp1777
g19
g20
(g21
(I0
tp1778
g23
tp1779
Rp1780
(I1
(L3L
tp1781
g30
I00
(lp1782
S'184343'
p1783
aS'5318954'
p1784
aS'5518925'
p1785
atp1786
bsg39
Nstp1787
Rp1788
a(lp1789
g20
(g21
(I0
tp1790
g23
tp1791
Rp1792
(I1
(L1L
L3L
tp1793
g61
I00
S'\x00\x00\x00\x00\x00\x00\xf0?\x00\x00\x00\x00\x00\x00\xf0?\x00\x00\x00\x00\x00\x00\xf0?'
p1794
tp1795
bag20
(g21
(I0
tp1796
g23
tp1797
Rp1798
(I1
(L2L
L3L
tp1799
g30
I00
(lp1800
Vat java.util.concurrent.ThreadPoolExecutor$Worker.run(ThreadPoolExecutor.java:617)
p1801
aVat java.util.concurrent.ThreadPoolExecutor$Worker.run(ThreadPoolExecutor.java:617)
p1802
aVat java.util.concurrent.ThreadPoolExecutor$Worker.run(ThreadPoolExecutor.java:617)
p1803
aS'AVQD9fmvePvB1HupEiKf'
p1804
aS'AVQFDr4YePvB1HupEiO1'
p1805
aS'AVQFJXM4ePvB1HupEiPS'
p1806
atp1807
bag20
(g21
(I0
tp1808
g23
tp1809
Rp1810
(I1
(L1L
L3L
tp1811
g84
I00
S'f\n\x00\x00\x00\x00\x00\x00f\n\x00\x00\x00\x00\x00\x00f\n\x00\x00\x00\x00\x00\x00'
p1812
tp1813
ba(lp1814
g16
(g17
(dp1815
g19
g20
(g21
(I0
tp1816
g23
tp1817
Rp1818
(I1
(L1L
tp1819
g30
I00
(lp1820
g34
atp1821
bsg39
Nstp1822
Rp1823
ag16
(g17
(dp1824
g19
g20
(g21
(I0
tp1825
g23
tp1826
Rp1827
(I1
(L2L
tp1828
g30
I00
(lp1829
g35
ag37
atp1830
bsg39
Nstp1831
Rp1832
ag16
(g17
(dp1833
g19
g20
(g21
(I0
tp1834
g23
tp1835
Rp1836
(I1
(L1L
tp1837
g30
I00
(lp1838
g36
atp1839
bsg39
Nstp1840
Rp1841
a(dp1842
g118
(dp1843
g120
g1776
sg121
(lp1844
(dp1845
g124
g127
sg128
g1792
sa(dp1846
g124
g131
sg128
g1798
sa(dp1847
g124
g134
sg128
g1810
sasstp1848
bsbag1
(g2
g3
Ntp1849
Rp1850
(dp1851
g7
g8
sg9
g10
sg11
g1
(g12
g3
Ntp1852
Rp1853
((lp1854
g41
ag16
(g17
(dp1855
g19
g20
(g21
(I0
tp1856
g23
tp1857
Rp1858
(I1
(L2L
tp1859
g30
I00
(lp1860
S'5318742'
p1861
aS'5418714'
p1862
atp1863
bsg39
Nstp1864
Rp1865
a(lp1866
g20
(g21
(I0
tp1867
g23
tp1868
Rp1869
(I1
(L1L
L2L
tp1870
g61
I00
S'\x00\x00\x00\x00\x00\x00\xf0?\x00\x00\x00\x00\x00\x00\xf0?'
p1871
tp1872
bag20
(g21
(I0
tp1873
g23
tp1874
Rp1875
(I1
(L2L
L2L
tp1876
g30
I00
(lp1877
V>> 13 errors in 150 files
p1878
aV>> 13 errors in 150 files
p1879
aS'AVQFDr4YePvB1HupEiO1'
p1880
aS'AVQFHq9cePvB1HupEiPK'
p1881
atp1882
bag20
(g21
(I0
tp1883
g23
tp1884
Rp1885
(I1
(L1L
L2L
tp1886
g84
I00
S'\x9a\n\x00\x00\x00\x00\x00\x00\x9a\n\x00\x00\x00\x00\x00\x00'
p1887
tp1888
ba(lp1889
g16
(g17
(dp1890
g19
g20
(g21
(I0
tp1891
g23
tp1892
Rp1893
(I1
(L1L
tp1894
g30
I00
(lp1895
g34
atp1896
bsg39
Nstp1897
Rp1898
ag16
(g17
(dp1899
g19
g20
(g21
(I0
tp1900
g23
tp1901
Rp1902
(I1
(L2L
tp1903
g30
I00
(lp1904
g35
ag37
atp1905
bsg39
Nstp1906
Rp1907
ag16
(g17
(dp1908
g19
g20
(g21
(I0
tp1909
g23
tp1910
Rp1911
(I1
(L1L
tp1912
g30
I00
(lp1913
g36
atp1914
bsg39
Nstp1915
Rp1916
a(dp1917
g118
(dp1918
g120
g1854
sg121
(lp1919
(dp1920
g124
g127
sg128
g1869
sa(dp1921
g124
g131
sg128
g1875
sa(dp1922
g124
g134
sg128
g1885
sasstp1923
bsbag1
(g2
g3
Ntp1924
Rp1925
(dp1926
g7
g8
sg9
g10
sg11
g1
(g12
g3
Ntp1927
Rp1928
((lp1929
g41
ag16
(g17
(dp1930
g19
g20
(g21
(I0
tp1931
g23
tp1932
Rp1933
(I1
(L2L
tp1934
g30
I00
(lp1935
S'18584'
p1936
aS'183681'
p1937
atp1938
bsg39
Nstp1939
Rp1940
a(lp1941
g20
(g21
(I0
tp1942
g23
tp1943
Rp1944
(I1
(L1L
L2L
tp1945
g61
I00
S'\x00\x00\x00\x00\x00\x00\xf0?\x00\x00\x00\x00\x00\x00\xf0?'
p1946
tp1947
bag20
(g21
(I0
tp1948
g23
tp1949
Rp1950
(I1
(L2L
L2L
tp1951
g30
I00
(lp1952
VDownloaded: http://mydtbld0051.hpeswlab.net:8081/nexus/content/groups/mqm-public/org/apache/maven/doxia/doxia-sink-api/1.1/doxia-sink-api-1.1.pom (2 KB at 24.0 KB/sec)
p1953
aVDownloaded: http://mydtbld0051.hpeswlab.net:8081/nexus/content/groups/mqm-public/xom/xom/1.1/xom-1.1.pom (2 KB at 124.5 KB/sec)
p1954
aS'AVQD9fmvePvB1HupEiKf'
p1955
aS'AVQD9fmvePvB1HupEiKf'
p1956
atp1957
bag20
(g21
(I0
tp1958
g23
tp1959
Rp1960
(I1
(L1L
L2L
tp1961
g84
I00
S'!\x0b\x00\x00\x00\x00\x00\x00!\x0b\x00\x00\x00\x00\x00\x00'
p1962
tp1963
ba(lp1964
g16
(g17
(dp1965
g19
g20
(g21
(I0
tp1966
g23
tp1967
Rp1968
(I1
(L1L
tp1969
g30
I00
(lp1970
g34
atp1971
bsg39
Nstp1972
Rp1973
ag16
(g17
(dp1974
g19
g20
(g21
(I0
tp1975
g23
tp1976
Rp1977
(I1
(L2L
tp1978
g30
I00
(lp1979
g35
ag37
atp1980
bsg39
Nstp1981
Rp1982
ag16
(g17
(dp1983
g19
g20
(g21
(I0
tp1984
g23
tp1985
Rp1986
(I1
(L1L
tp1987
g30
I00
(lp1988
g36
atp1989
bsg39
Nstp1990
Rp1991
a(dp1992
g118
(dp1993
g120
g1929
sg121
(lp1994
(dp1995
g124
g127
sg128
g1944
sa(dp1996
g124
g131
sg128
g1950
sa(dp1997
g124
g134
sg128
g1960
sasstp1998
bsbag1
(g2
g3
Ntp1999
Rp2000
(dp2001
g7
g8
sg9
g10
sg11
g1
(g12
g3
Ntp2002
Rp2003
((lp2004
g41
ag16
(g17
(dp2005
g19
g20
(g21
(I0
tp2006
g23
tp2007
Rp2008
(I1
(L2L
tp2009
g30
I00
(lp2010
S'5318965'
p2011
aS'5418937'
p2012
atp2013
bsg39
Nstp2014
Rp2015
a(lp2016
g20
(g21
(I0
tp2017
g23
tp2018
Rp2019
(I1
(L1L
L2L
tp2020
g61
I00
S'\x00\x00\x00\x00\x00\x00\xf0?\x00\x00\x00\x00\x00\x00\xf0?'
p2021
tp2022
bag20
(g21
(I0
tp2023
g23
tp2024
Rp2025
(I1
(L2L
L2L
tp2026
g30
I00
(lp2027
V... 11 more
p2028
aV... 11 more
p2029
aS'AVQFDr4YePvB1HupEiO1'
p2030
aS'AVQFHq9cePvB1HupEiPK'
p2031
atp2032
bag20
(g21
(I0
tp2033
g23
tp2034
Rp2035
(I1
(L1L
L2L
tp2036
g84
I00
S'^\x0b\x00\x00\x00\x00\x00\x00^\x0b\x00\x00\x00\x00\x00\x00'
p2037
tp2038
ba(lp2039
g16
(g17
(dp2040
g19
g20
(g21
(I0
tp2041
g23
tp2042
Rp2043
(I1
(L1L
tp2044
g30
I00
(lp2045
g34
atp2046
bsg39
Nstp2047
Rp2048
ag16
(g17
(dp2049
g19
g20
(g21
(I0
tp2050
g23
tp2051
Rp2052
(I1
(L2L
tp2053
g30
I00
(lp2054
g35
ag37
atp2055
bsg39
Nstp2056
Rp2057
ag16
(g17
(dp2058
g19
g20
(g21
(I0
tp2059
g23
tp2060
Rp2061
(I1
(L1L
tp2062
g30
I00
(lp2063
g36
atp2064
bsg39
Nstp2065
Rp2066
a(dp2067
g118
(dp2068
g120
g2004
sg121
(lp2069
(dp2070
g124
g127
sg128
g2019
sa(dp2071
g124
g131
sg128
g2025
sa(dp2072
g124
g134
sg128
g2035
sasstp2073
bsbag1
(g2
g3
Ntp2074
Rp2075
(dp2076
g7
g8
sg9
g10
sg11
g1
(g12
g3
Ntp2077
Rp2078
((lp2079
g41
ag16
(g17
(dp2080
g19
g20
(g21
(I0
tp2081
g23
tp2082
Rp2083
(I1
(L3L
tp2084
g30
I00
(lp2085
S'184367'
p2086
aS'5318983'
p2087
aS'5518954'
p2088
atp2089
bsg39
Nstp2090
Rp2091
a(lp2092
g20
(g21
(I0
tp2093
g23
tp2094
Rp2095
(I1
(L1L
L3L
tp2096
g61
I00
S'\x00\x00\x00\x00\x00\x00\xf0?\x00\x00\x00\x00\x00\x00\xf0?\x00\x00\x00\x00\x00\x00\xf0?'
p2097
tp2098
bag20
(g21
(I0
tp2099
g23
tp2100
Rp2101
(I1
(L2L
L3L
tp2102
g30
I00
(lp2103
V[ERROR] After correcting the problems, you can resume the build with the command
p2104
aV[ERROR] After correcting the problems, you can resume the build with the command
p2105
aV[ERROR] After correcting the problems, you can resume the build with the command
p2106
aS'AVQD9fmvePvB1HupEiKf'
p2107
aS'AVQFDr4YePvB1HupEiO1'
p2108
aS'AVQFJXM4ePvB1HupEiPS'
p2109
atp2110
bag20
(g21
(I0
tp2111
g23
tp2112
Rp2113
(I1
(L1L
L3L
tp2114
g84
I00
S'\xa6\x0b\x00\x00\x00\x00\x00\x00\xa6\x0b\x00\x00\x00\x00\x00\x00\xa6\x0b\x00\x00\x00\x00\x00\x00'
p2115
tp2116
ba(lp2117
g16
(g17
(dp2118
g19
g20
(g21
(I0
tp2119
g23
tp2120
Rp2121
(I1
(L1L
tp2122
g30
I00
(lp2123
g34
atp2124
bsg39
Nstp2125
Rp2126
ag16
(g17
(dp2127
g19
g20
(g21
(I0
tp2128
g23
tp2129
Rp2130
(I1
(L2L
tp2131
g30
I00
(lp2132
g35
ag37
atp2133
bsg39
Nstp2134
Rp2135
ag16
(g17
(dp2136
g19
g20
(g21
(I0
tp2137
g23
tp2138
Rp2139
(I1
(L1L
tp2140
g30
I00
(lp2141
g36
atp2142
bsg39
Nstp2143
Rp2144
a(dp2145
g118
(dp2146
g120
g2079
sg121
(lp2147
(dp2148
g124
g127
sg128
g2095
sa(dp2149
g124
g131
sg128
g2101
sa(dp2150
g124
g134
sg128
g2113
sasstp2151
bsbag1
(g2
g3
Ntp2152
Rp2153
(dp2154
g7
g8
sg9
g10
sg11
g1
(g12
g3
Ntp2155
Rp2156
((lp2157
g41
ag16
(g17
(dp2158
g19
g20
(g21
(I0
tp2159
g23
tp2160
Rp2161
(I1
(L10L
tp2162
g30
I00
(lp2163
S'184245'
p2164
aS'184276'
p2165
aS'184294'
p2166
aS'184303'
p2167
aS'5318906'
p2168
aS'5318926'
p2169
aS'5418878'
p2170
aS'5418898'
p2171
aS'5518877'
p2172
aS'5518897'
p2173
atp2174
bsg39
Nstp2175
Rp2176
a(lp2177
g20
(g21
(I0
tp2178
g23
tp2179
Rp2180
(I1
(L1L
L10L
tp2181
g61
I00
S'\x00\x00\x00\x00\x00\x00\xf0?\x00\x00\x00\x00\x00\x00\xf0?\x00\x00\x00\x00\x00\x00\xf0?\x00\x00\x00\x00\x00\x00\xf0?\x00\x00\x00\x00\x00\x00\xf0?\x00\x00\x00\x00\x00\x00\xf0?\x00\x00\x00\x00\x00\x00\xf0?\x00\x00\x00\x00\x00\x00\xf0?\x00\x00\x00\x00\x00\x00\xf0?\x00\x00\x00\x00\x00\x00\xf0?'
p2182
tp2183
bag20
(g21
(I0
tp2184
g23
tp2185
Rp2186
(I1
(L2L
L10L
tp2187
g30
I00
(lp2188
V[INFO] test-box-service .................................. SKIPPED
p2189
aV[INFO] mqm-storage-impl .................................. SKIPPED
p2190
aV[INFO] saas-portal-mock .................................. SKIPPED
p2191
aV[INFO] selenium-wrapper .................................. SKIPPED
p2192
aV[INFO] mqm-install-impl .................................. SKIPPED
p2193
aV[INFO] mqm-distribution .................................. SKIPPED
p2194
aV[INFO] mqm-install-impl .................................. SKIPPED
p2195
aV[INFO] mqm-distribution .................................. SKIPPED
p2196
aV[INFO] mqm-install-impl .................................. SKIPPED
p2197
aV[INFO] mqm-distribution .................................. SKIPPED
p2198
aS'AVQD9fmvePvB1HupEiKf'
p2199
aS'AVQD9fmvePvB1HupEiKf'
p2200
aS'AVQD9fmvePvB1HupEiKf'
p2201
aS'AVQD9fmvePvB1HupEiKf'
p2202
aS'AVQFDr4YePvB1HupEiO1'
p2203
aS'AVQFDr4YePvB1HupEiO1'
p2204
aS'AVQFHq9cePvB1HupEiPK'
p2205
aS'AVQFHq9cePvB1HupEiPK'
p2206
aS'AVQFJXM4ePvB1HupEiPS'
p2207
aS'AVQFJXM4ePvB1HupEiPS'
p2208
atp2209
bag20
(g21
(I0
tp2210
g23
tp2211
Rp2212
(I1
(L1L
L10L
tp2213
g84
I00
S'\xd3\x0b\x00\x00\x00\x00\x00\x00\xd3\x0b\x00\x00\x00\x00\x00\x00\xd3\x0b\x00\x00\x00\x00\x00\x00\xd3\x0b\x00\x00\x00\x00\x00\x00\xd3\x0b\x00\x00\x00\x00\x00\x00\xd3\x0b\x00\x00\x00\x00\x00\x00\xd3\x0b\x00\x00\x00\x00\x00\x00\xd3\x0b\x00\x00\x00\x00\x00\x00\xd3\x0b\x00\x00\x00\x00\x00\x00\xd3\x0b\x00\x00\x00\x00\x00\x00'
p2214
tp2215
ba(lp2216
g16
(g17
(dp2217
g19
g20
(g21
(I0
tp2218
g23
tp2219
Rp2220
(I1
(L1L
tp2221
g30
I00
(lp2222
g34
atp2223
bsg39
Nstp2224
Rp2225
ag16
(g17
(dp2226
g19
g20
(g21
(I0
tp2227
g23
tp2228
Rp2229
(I1
(L2L
tp2230
g30
I00
(lp2231
g35
ag37
atp2232
bsg39
Nstp2233
Rp2234
ag16
(g17
(dp2235
g19
g20
(g21
(I0
tp2236
g23
tp2237
Rp2238
(I1
(L1L
tp2239
g30
I00
(lp2240
g36
atp2241
bsg39
Nstp2242
Rp2243
a(dp2244
g118
(dp2245
g120
g2157
sg121
(lp2246
(dp2247
g124
g127
sg128
g2180
sa(dp2248
g124
g131
sg128
g2186
sa(dp2249
g124
g134
sg128
g2212
sasstp2250
bsbag1
(g2
g3
Ntp2251
Rp2252
(dp2253
g7
g8
sg9
g10
sg11
g1
(g12
g3
Ntp2254
Rp2255
((lp2256
g41
ag16
(g17
(dp2257
g19
g20
(g21
(I0
tp2258
g23
tp2259
Rp2260
(I1
(L2L
tp2261
g30
I00
(lp2262
S'181374'
p2263
aS'181377'
p2264
atp2265
bsg39
Nstp2266
Rp2267
a(lp2268
g20
(g21
(I0
tp2269
g23
tp2270
Rp2271
(I1
(L1L
L2L
tp2272
g61
I00
S'\x00\x00\x00\x00\x00\x00\xf0?\x00\x00\x00\x00\x00\x00\xf0?'
p2273
tp2274
bag20
(g21
(I0
tp2275
g23
tp2276
Rp2277
(I1
(L2L
L2L
tp2278
g30
I00
(lp2279
VDownloaded: http://mydtbld0051.hpeswlab.net:8081/nexus/content/groups/mqm-public/org/apache/maven/doxia/doxia-module-apt/1.0/doxia-module-apt-1.0.pom (3 KB at 157.2 KB/sec)
p2280
aVDownloaded: http://mydtbld0051.hpeswlab.net:8081/nexus/content/groups/mqm-public/org/apache/maven/doxia/doxia-modules/1.0/doxia-modules-1.0.pom (3 KB at 137.5 KB/sec)
p2281
aS'AVQD9fmvePvB1HupEiKf'
p2282
aS'AVQD9fmvePvB1HupEiKf'
p2283
atp2284
bag20
(g21
(I0
tp2285
g23
tp2286
Rp2287
(I1
(L1L
L2L
tp2288
g84
I00
S'\xd8\x0b\x00\x00\x00\x00\x00\x00\xd8\x0b\x00\x00\x00\x00\x00\x00'
p2289
tp2290
ba(lp2291
g16
(g17
(dp2292
g19
g20
(g21
(I0
tp2293
g23
tp2294
Rp2295
(I1
(L1L
tp2296
g30
I00
(lp2297
g34
atp2298
bsg39
Nstp2299
Rp2300
ag16
(g17
(dp2301
g19
g20
(g21
(I0
tp2302
g23
tp2303
Rp2304
(I1
(L2L
tp2305
g30
I00
(lp2306
g35
ag37
atp2307
bsg39
Nstp2308
Rp2309
ag16
(g17
(dp2310
g19
g20
(g21
(I0
tp2311
g23
tp2312
Rp2313
(I1
(L1L
tp2314
g30
I00
(lp2315
g36
atp2316
bsg39
Nstp2317
Rp2318
a(dp2319
g118
(dp2320
g120
g2256
sg121
(lp2321
(dp2322
g124
g127
sg128
g2271
sa(dp2323
g124
g131
sg128
g2277
sa(dp2324
g124
g134
sg128
g2287
sasstp2325
bsbag1
(g2
g3
Ntp2326
Rp2327
(dp2328
g7
g8
sg9
g10
sg11
g1
(g12
g3
Ntp2329
Rp2330
((lp2331
g41
ag16
(g17
(dp2332
g19
g20
(g21
(I0
tp2333
g23
tp2334
Rp2335
(I1
(L2L
tp2336
g30
I00
(lp2337
S'5318971'
p2338
aS'5518942'
p2339
atp2340
bsg39
Nstp2341
Rp2342
a(lp2343
g20
(g21
(I0
tp2344
g23
tp2345
Rp2346
(I1
(L1L
L2L
tp2347
g61
I00
S'\x00\x00\x00\x00\x00\x00\xf0?\x00\x00\x00\x00\x00\x00\xf0?'
p2348
tp2349
bag20
(g21
(I0
tp2350
g23
tp2351
Rp2352
(I1
(L2L
L2L
tp2353
g30
I00
(lp2354
VCaused by: org.apache.commons.exec.ExecuteException: Process exited with an error: 6 (Exit value: 6)
p2355
aVCaused by: org.apache.commons.exec.ExecuteException: Process exited with an error: 6 (Exit value: 6)
p2356
aS'AVQFDr4YePvB1HupEiO1'
p2357
aS'AVQFJXM4ePvB1HupEiPS'
p2358
atp2359
bag20
(g21
(I0
tp2360
g23
tp2361
Rp2362
(I1
(L1L
L2L
tp2363
g84
I00
S'\x08\x0c\x00\x00\x00\x00\x00\x00\x08\x0c\x00\x00\x00\x00\x00\x00'
p2364
tp2365
ba(lp2366
g16
(g17
(dp2367
g19
g20
(g21
(I0
tp2368
g23
tp2369
Rp2370
(I1
(L1L
tp2371
g30
I00
(lp2372
g34
atp2373
bsg39
Nstp2374
Rp2375
ag16
(g17
(dp2376
g19
g20
(g21
(I0
tp2377
g23
tp2378
Rp2379
(I1
(L2L
tp2380
g30
I00
(lp2381
g35
ag37
atp2382
bsg39
Nstp2383
Rp2384
ag16
(g17
(dp2385
g19
g20
(g21
(I0
tp2386
g23
tp2387
Rp2388
(I1
(L1L
tp2389
g30
I00
(lp2390
g36
atp2391
bsg39
Nstp2392
Rp2393
a(dp2394
g118
(dp2395
g120
g2331
sg121
(lp2396
(dp2397
g124
g127
sg128
g2346
sa(dp2398
g124
g131
sg128
g2352
sa(dp2399
g124
g134
sg128
g2362
sasstp2400
bsbag1
(g2
g3
Ntp2401
Rp2402
(dp2403
g7
g8
sg9
g10
sg11
g1
(g12
g3
Ntp2404
Rp2405
((lp2406
g41
ag16
(g17
(dp2407
g19
g20
(g21
(I0
tp2408
g23
tp2409
Rp2410
(I1
(L6L
tp2411
g30
I00
(lp2412
S'184174'
p2413
aS'184184'
p2414
aS'184203'
p2415
aS'184230'
p2416
aS'184236'
p2417
aS'184310'
p2418
atp2419
bsg39
Nstp2420
Rp2421
a(lp2422
g20
(g21
(I0
tp2423
g23
tp2424
Rp2425
(I1
(L1L
L6L
tp2426
g61
I00
S'\x00\x00\x00\x00\x00\x00\xf0?\x00\x00\x00\x00\x00\x00\xf0?\x00\x00\x00\x00\x00\x00\xf0?\x00\x00\x00\x00\x00\x00\xf0?\x00\x00\x00\x00\x00\x00\xf0?\x00\x00\x00\x00\x00\x00\xf0?'
p2427
tp2428
bag20
(g21
(I0
tp2429
g23
tp2430
Rp2431
(I1
(L2L
L6L
tp2432
g30
I00
(lp2433
V[INFO] mqm-ps-entities-api ............................... SKIPPED
p2434
aV[INFO] mqm-bl-platform-api ............................... SKIPPED
p2435
aV[INFO] mqm-rest-infra-impl ............................... SKIPPED
p2436
aV[INFO] mqm-trend-sync-impl ............................... SKIPPED
p2437
aV[INFO] mqm-sbs-manager-api ............................... SKIPPED
p2438
aV[INFO] ui-automation-tests ............................... SKIPPED
p2439
aS'AVQD9fmvePvB1HupEiKf'
p2440
aS'AVQD9fmvePvB1HupEiKf'
p2441
aS'AVQD9fmvePvB1HupEiKf'
p2442
aS'AVQD9fmvePvB1HupEiKf'
p2443
aS'AVQD9fmvePvB1HupEiKf'
p2444
aS'AVQD9fmvePvB1HupEiKf'
p2445
atp2446
bag20
(g21
(I0
tp2447
g23
tp2448
Rp2449
(I1
(L1L
L6L
tp2450
g84
I00
S'\x1c\x0c\x00\x00\x00\x00\x00\x00\x1c\x0c\x00\x00\x00\x00\x00\x00\x1c\x0c\x00\x00\x00\x00\x00\x00\x1c\x0c\x00\x00\x00\x00\x00\x00\x1c\x0c\x00\x00\x00\x00\x00\x00\x1c\x0c\x00\x00\x00\x00\x00\x00'
p2451
tp2452
ba(lp2453
g16
(g17
(dp2454
g19
g20
(g21
(I0
tp2455
g23
tp2456
Rp2457
(I1
(L1L
tp2458
g30
I00
(lp2459
g34
atp2460
bsg39
Nstp2461
Rp2462
ag16
(g17
(dp2463
g19
g20
(g21
(I0
tp2464
g23
tp2465
Rp2466
(I1
(L2L
tp2467
g30
I00
(lp2468
g35
ag37
atp2469
bsg39
Nstp2470
Rp2471
ag16
(g17
(dp2472
g19
g20
(g21
(I0
tp2473
g23
tp2474
Rp2475
(I1
(L1L
tp2476
g30
I00
(lp2477
g36
atp2478
bsg39
Nstp2479
Rp2480
a(dp2481
g118
(dp2482
g120
g2406
sg121
(lp2483
(dp2484
g124
g127
sg128
g2425
sa(dp2485
g124
g131
sg128
g2431
sa(dp2486
g124
g134
sg128
g2449
sasstp2487
bsbag1
(g2
g3
Ntp2488
Rp2489
(dp2490
g7
g8
sg9
g10
sg11
g1
(g12
g3
Ntp2491
Rp2492
((lp2493
g41
ag16
(g17
(dp2494
g19
g20
(g21
(I0
tp2495
g23
tp2496
Rp2497
(I1
(L2L
tp2498
g30
I00
(lp2499
S'5418940'
p2500
aS'5518934'
p2501
atp2502
bsg39
Nstp2503
Rp2504
a(lp2505
g20
(g21
(I0
tp2506
g23
tp2507
Rp2508
(I1
(L1L
L2L
tp2509
g61
I00
S'\x00\x00\x00\x00\x00\x00\xf0?\x00\x00\x00\x00\x00\x00\xf0?'
p2510
tp2511
bag20
(g21
(I0
tp2512
g23
tp2513
Rp2514
(I1
(L2L
L2L
tp2515
g30
I00
(lp2516
Vat org.apache.maven.plugin.DefaultBuildPluginManager.executeMojo(DefaultBuildPluginManager.java:101)
p2517
aVat org.apache.maven.plugin.DefaultBuildPluginManager.executeMojo(DefaultBuildPluginManager.java:101)
p2518
aS'AVQFHq9cePvB1HupEiPK'
p2519
aS'AVQFJXM4ePvB1HupEiPS'
p2520
atp2521
bag20
(g21
(I0
tp2522
g23
tp2523
Rp2524
(I1
(L1L
L2L
tp2525
g84
I00
S'j\x0c\x00\x00\x00\x00\x00\x00j\x0c\x00\x00\x00\x00\x00\x00'
p2526
tp2527
ba(lp2528
g16
(g17
(dp2529
g19
g20
(g21
(I0
tp2530
g23
tp2531
Rp2532
(I1
(L1L
tp2533
g30
I00
(lp2534
g34
atp2535
bsg39
Nstp2536
Rp2537
ag16
(g17
(dp2538
g19
g20
(g21
(I0
tp2539
g23
tp2540
Rp2541
(I1
(L2L
tp2542
g30
I00
(lp2543
g35
ag37
atp2544
bsg39
Nstp2545
Rp2546
ag16
(g17
(dp2547
g19
g20
(g21
(I0
tp2548
g23
tp2549
Rp2550
(I1
(L1L
tp2551
g30
I00
(lp2552
g36
atp2553
bsg39
Nstp2554
Rp2555
a(dp2556
g118
(dp2557
g120
g2493
sg121
(lp2558
(dp2559
g124
g127
sg128
g2508
sa(dp2560
g124
g131
sg128
g2514
sa(dp2561
g124
g134
sg128
g2524
sasstp2562
bsbag1
(g2
g3
Ntp2563
Rp2564
(dp2565
g7
g8
sg9
g10
sg11
g1
(g12
g3
Ntp2566
Rp2567
((lp2568
g41
ag16
(g17
(dp2569
g19
g20
(g21
(I0
tp2570
g23
tp2571
Rp2572
(I1
(L2L
tp2573
g30
I00
(lp2574
S'5318733'
p2575
aS'5418705'
p2576
atp2577
bsg39
Nstp2578
Rp2579
a(lp2580
g20
(g21
(I0
tp2581
g23
tp2582
Rp2583
(I1
(L1L
L2L
tp2584
g61
I00
S'\x00\x00\x00\x00\x00\x00\xf0?\x00\x00\x00\x00\x00\x00\xf0?'
p2585
tp2586
bag20
(g21
(I0
tp2587
g23
tp2588
Rp2589
(I1
(L2L
L2L
tp2590
g30
I00
(lp2591
V30 | var element = linkFn(scope);
p2592
aV30 | var element = linkFn(scope);
p2593
aS'AVQFDr4YePvB1HupEiO1'
p2594
aS'AVQFHq9cePvB1HupEiPK'
p2595
atp2596
bag20
(g21
(I0
tp2597
g23
tp2598
Rp2599
(I1
(L1L
L2L
tp2600
g84
I00
S'\xa2\x0c\x00\x00\x00\x00\x00\x00\xa2\x0c\x00\x00\x00\x00\x00\x00'
p2601
tp2602
ba(lp2603
g16
(g17
(dp2604
g19
g20
(g21
(I0
tp2605
g23
tp2606
Rp2607
(I1
(L1L
tp2608
g30
I00
(lp2609
g34
atp2610
bsg39
Nstp2611
Rp2612
ag16
(g17
(dp2613
g19
g20
(g21
(I0
tp2614
g23
tp2615
Rp2616
(I1
(L2L
tp2617
g30
I00
(lp2618
g35
ag37
atp2619
bsg39
Nstp2620
Rp2621
ag16
(g17
(dp2622
g19
g20
(g21
(I0
tp2623
g23
tp2624
Rp2625
(I1
(L1L
tp2626
g30
I00
(lp2627
g36
atp2628
bsg39
Nstp2629
Rp2630
a(dp2631
g118
(dp2632
g120
g2568
sg121
(lp2633
(dp2634
g124
g127
sg128
g2583
sa(dp2635
g124
g131
sg128
g2589
sa(dp2636
g124
g134
sg128
g2599
sasstp2637
bsbag1
(g2
g3
Ntp2638
Rp2639
(dp2640
g7
g8
sg9
g10
sg11
g1
(g12
g3
Ntp2641
Rp2642
((lp2643
g41
ag16
(g17
(dp2644
g19
g20
(g21
(I0
tp2645
g23
tp2646
Rp2647
(I1
(L6L
tp2648
g30
I00
(lp2649
S'184167'
p2650
aS'184186'
p2651
aS'184216'
p2652
aS'184240'
p2653
aS'184252'
p2654
aS'184277'
p2655
atp2656
bsg39
Nstp2657
Rp2658
a(lp2659
g20
(g21
(I0
tp2660
g23
tp2661
Rp2662
(I1
(L1L
L6L
tp2663
g61
I00
S'\x00\x00\x00\x00\x00\x00\xf0?\x00\x00\x00\x00\x00\x00\xf0?\x00\x00\x00\x00\x00\x00\xf0?\x00\x00\x00\x00\x00\x00\xf0?\x00\x00\x00\x00\x00\x00\xf0?\x00\x00\x00\x00\x00\x00\xf0?'
p2664
tp2665
bag20
(g21
(I0
tp2666
g23
tp2667
Rp2668
(I1
(L2L
L6L
tp2669
g30
I00
(lp2670
V[INFO] mqm-dal-db-infra-api .............................. SKIPPED
p2671
aV[INFO] mqm-app-entities-api .............................. SKIPPED
p2672
aV[INFO] mqm-ps-entities-impl .............................. SKIPPED
p2673
aV[INFO] test-box-api-commons .............................. SKIPPED
p2674
aV[INFO] mqm-bl-platform-impl .............................. SKIPPED
p2675
aV[INFO] mqm-sbs-manager-impl .............................. SKIPPED
p2676
aS'AVQD9fmvePvB1HupEiKf'
p2677
aS'AVQD9fmvePvB1HupEiKf'
p2678
aS'AVQD9fmvePvB1HupEiKf'
p2679
aS'AVQD9fmvePvB1HupEiKf'
p2680
aS'AVQD9fmvePvB1HupEiKf'
p2681
aS'AVQD9fmvePvB1HupEiKf'
p2682
atp2683
bag20
(g21
(I0
tp2684
g23
tp2685
Rp2686
(I1
(L1L
L6L
tp2687
g84
I00
S'\xbd\x0c\x00\x00\x00\x00\x00\x00\xbd\x0c\x00\x00\x00\x00\x00\x00\xbd\x0c\x00\x00\x00\x00\x00\x00\xbd\x0c\x00\x00\x00\x00\x00\x00\xbd\x0c\x00\x00\x00\x00\x00\x00\xbd\x0c\x00\x00\x00\x00\x00\x00'
p2688
tp2689
ba(lp2690
g16
(g17
(dp2691
g19
g20
(g21
(I0
tp2692
g23
tp2693
Rp2694
(I1
(L1L
tp2695
g30
I00
(lp2696
g34
atp2697
bsg39
Nstp2698
Rp2699
ag16
(g17
(dp2700
g19
g20
(g21
(I0
tp2701
g23
tp2702
Rp2703
(I1
(L2L
tp2704
g30
I00
(lp2705
g35
ag37
atp2706
bsg39
Nstp2707
Rp2708
ag16
(g17
(dp2709
g19
g20
(g21
(I0
tp2710
g23
tp2711
Rp2712
(I1
(L1L
tp2713
g30
I00
(lp2714
g36
atp2715
bsg39
Nstp2716
Rp2717
a(dp2718
g118
(dp2719
g120
g2643
sg121
(lp2720
(dp2721
g124
g127
sg128
g2662
sa(dp2722
g124
g131
sg128
g2668
sa(dp2723
g124
g134
sg128
g2686
sasstp2724
bsbag1
(g2
g3
Ntp2725
Rp2726
(dp2727
g7
g8
sg9
g10
sg11
g1
(g12
g3
Ntp2728
Rp2729
((lp2730
g41
ag16
(g17
(dp2731
g19
g20
(g21
(I0
tp2732
g23
tp2733
Rp2734
(I1
(L2L
tp2735
g30
I00
(lp2736
S'5418931'
p2737
aS'5518930'
p2738
atp2739
bsg39
Nstp2740
Rp2741
a(lp2742
g20
(g21
(I0
tp2743
g23
tp2744
Rp2745
(I1
(L1L
L2L
tp2746
g61
I00
S'\x00\x00\x00\x00\x00\x00\xf0?\x00\x00\x00\x00\x00\x00\xf0?'
p2747
tp2748
bag20
(g21
(I0
tp2749
g23
tp2750
Rp2751
(I1
(L2L
L2L
tp2752
g30
I00
(lp2753
Vat org.twdata.maven.mojoexecutor.MojoExecutor.executeMojo(MojoExecutor.java:75)
p2754
aVat org.twdata.maven.mojoexecutor.MojoExecutor.executeMojo(MojoExecutor.java:75)
p2755
aS'AVQFHq9cePvB1HupEiPK'
p2756
aS'AVQFJXM4ePvB1HupEiPS'
p2757
atp2758
bag20
(g21
(I0
tp2759
g23
tp2760
Rp2761
(I1
(L1L
L2L
tp2762
g84
I00
S'\x7f\r\x00\x00\x00\x00\x00\x00\x7f\r\x00\x00\x00\x00\x00\x00'
p2763
tp2764
ba(lp2765
g16
(g17
(dp2766
g19
g20
(g21
(I0
tp2767
g23
tp2768
Rp2769
(I1
(L1L
tp2770
g30
I00
(lp2771
g34
atp2772
bsg39
Nstp2773
Rp2774
ag16
(g17
(dp2775
g19
g20
(g21
(I0
tp2776
g23
tp2777
Rp2778
(I1
(L2L
tp2779
g30
I00
(lp2780
g35
ag37
atp2781
bsg39
Nstp2782
Rp2783
ag16
(g17
(dp2784
g19
g20
(g21
(I0
tp2785
g23
tp2786
Rp2787
(I1
(L1L
tp2788
g30
I00
(lp2789
g36
atp2790
bsg39
Nstp2791
Rp2792
a(dp2793
g118
(dp2794
g120
g2730
sg121
(lp2795
(dp2796
g124
g127
sg128
g2745
sa(dp2797
g124
g131
sg128
g2751
sa(dp2798
g124
g134
sg128
g2761
sasstp2799
bsbag1
(g2
g3
Ntp2800
Rp2801
(dp2802
g7
g8
sg9
g10
sg11
g1
(g12
g3
Ntp2803
Rp2804
((lp2805
g41
ag16
(g17
(dp2806
g19
g20
(g21
(I0
tp2807
g23
tp2808
Rp2809
(I1
(L2L
tp2810
g30
I00
(lp2811
S'5418699'
p2812
aS'5518698'
p2813
atp2814
bsg39
Nstp2815
Rp2816
a(lp2817
g20
(g21
(I0
tp2818
g23
tp2819
Rp2820
(I1
(L1L
L2L
tp2821
g61
I00
S'\x00\x00\x00\x00\x00\x00\xf0?\x00\x00\x00\x00\x00\x00\xf0?'
p2822
tp2823
bag20
(g21
(I0
tp2824
g23
tp2825
Rp2826
(I1
(L2L
L2L
tp2827
g30
I00
(lp2828
V25 | var urlParts = this.$window.document.URL.split('?p');
p2829
aV25 | var urlParts = this.$window.document.URL.split('?p');
p2830
aS'AVQFHq9cePvB1HupEiPK'
p2831
aS'AVQFJXM4ePvB1HupEiPS'
p2832
atp2833
bag20
(g21
(I0
tp2834
g23
tp2835
Rp2836
(I1
(L1L
L2L
tp2837
g84
I00
S'\xa2\r\x00\x00\x00\x00\x00\x00\xa2\r\x00\x00\x00\x00\x00\x00'
p2838
tp2839
ba(lp2840
g16
(g17
(dp2841
g19
g20
(g21
(I0
tp2842
g23
tp2843
Rp2844
(I1
(L1L
tp2845
g30
I00
(lp2846
g34
atp2847
bsg39
Nstp2848
Rp2849
ag16
(g17
(dp2850
g19
g20
(g21
(I0
tp2851
g23
tp2852
Rp2853
(I1
(L2L
tp2854
g30
I00
(lp2855
g35
ag37
atp2856
bsg39
Nstp2857
Rp2858
ag16
(g17
(dp2859
g19
g20
(g21
(I0
tp2860
g23
tp2861
Rp2862
(I1
(L1L
tp2863
g30
I00
(lp2864
g36
atp2865
bsg39
Nstp2866
Rp2867
a(dp2868
g118
(dp2869
g120
g2805
sg121
(lp2870
(dp2871
g124
g127
sg128
g2820
sa(dp2872
g124
g131
sg128
g2826
sa(dp2873
g124
g134
sg128
g2836
sasstp2874
bsbag1
(g2
g3
Ntp2875
Rp2876
(dp2877
g7
g8
sg9
g10
sg11
g1
(g12
g3
Ntp2878
Rp2879
((lp2880
g41
ag16
(g17
(dp2881
g19
g20
(g21
(I0
tp2882
g23
tp2883
Rp2884
(I1
(L2L
tp2885
g30
I00
(lp2886
S'5318975'
p2887
aS'5418947'
p2888
atp2889
bsg39
Nstp2890
Rp2891
a(lp2892
g20
(g21
(I0
tp2893
g23
tp2894
Rp2895
(I1
(L1L
L2L
tp2896
g61
I00
S'\x00\x00\x00\x00\x00\x00\xf0?\x00\x00\x00\x00\x00\x00\xf0?'
p2897
tp2898
bag20
(g21
(I0
tp2899
g23
tp2900
Rp2901
(I1
(L2L
L2L
tp2902
g30
I00
(lp2903
Vat org.codehaus.mojo.exec.ExecMojo.execute(ExecMojo.java:352)
p2904
aVat org.codehaus.mojo.exec.ExecMojo.execute(ExecMojo.java:352)
p2905
aS'AVQFDr4YePvB1HupEiO1'
p2906
aS'AVQFHq9cePvB1HupEiPK'
p2907
atp2908
bag20
(g21
(I0
tp2909
g23
tp2910
Rp2911
(I1
(L1L
L2L
tp2912
g84
I00
S'\xd2\r\x00\x00\x00\x00\x00\x00\xd2\r\x00\x00\x00\x00\x00\x00'
p2913
tp2914
ba(lp2915
g16
(g17
(dp2916
g19
g20
(g21
(I0
tp2917
g23
tp2918
Rp2919
(I1
(L1L
tp2920
g30
I00
(lp2921
g34
atp2922
bsg39
Nstp2923
Rp2924
ag16
(g17
(dp2925
g19
g20
(g21
(I0
tp2926
g23
tp2927
Rp2928
(I1
(L2L
tp2929
g30
I00
(lp2930
g35
ag37
atp2931
bsg39
Nstp2932
Rp2933
ag16
(g17
(dp2934
g19
g20
(g21
(I0
tp2935
g23
tp2936
Rp2937
(I1
(L1L
tp2938
g30
I00
(lp2939
g36
atp2940
bsg39
Nstp2941
Rp2942
a(dp2943
g118
(dp2944
g120
g2880
sg121
(lp2945
(dp2946
g124
g127
sg128
g2895
sa(dp2947
g124
g131
sg128
g2901
sa(dp2948
g124
g134
sg128
g2911
sasstp2949
bsbag1
(g2
g3
Ntp2950
Rp2951
(dp2952
g7
g8
sg9
g10
sg11
g1
(g12
g3
Ntp2953
Rp2954
((lp2955
g41
ag16
(g17
(dp2956
g19
g20
(g21
(I0
tp2957
g23
tp2958
Rp2959
(I1
(L2L
tp2960
g30
I00
(lp2961
S'5318980'
p2962
aS'5518951'
p2963
atp2964
bsg39
Nstp2965
Rp2966
a(lp2967
g20
(g21
(I0
tp2968
g23
tp2969
Rp2970
(I1
(L1L
L2L
tp2971
g61
I00
S'\x00\x00\x00\x00\x00\x00\xf0?\x00\x00\x00\x00\x00\x00\xf0?'
p2972
tp2973
bag20
(g21
(I0
tp2974
g23
tp2975
Rp2976
(I1
(L2L
L2L
tp2977
g30
I00
(lp2978
V[ERROR] For more information about the errors and possible solutions, please read the following articles:
p2979
aV[ERROR] For more information about the errors and possible solutions, please read the following articles:
p2980
aS'AVQFDr4YePvB1HupEiO1'
p2981
aS'AVQFJXM4ePvB1HupEiPS'
p2982
atp2983
bag20
(g21
(I0
tp2984
g23
tp2985
Rp2986
(I1
(L1L
L2L
tp2987
g84
I00
S'\xd9\r\x00\x00\x00\x00\x00\x00\xd9\r\x00\x00\x00\x00\x00\x00'
p2988
tp2989
ba(lp2990
g16
(g17
(dp2991
g19
g20
(g21
(I0
tp2992
g23
tp2993
Rp2994
(I1
(L1L
tp2995
g30
I00
(lp2996
g34
atp2997
bsg39
Nstp2998
Rp2999
ag16
(g17
(dp3000
g19
g20
(g21
(I0
tp3001
g23
tp3002
Rp3003
(I1
(L2L
tp3004
g30
I00
(lp3005
g35
ag37
atp3006
bsg39
Nstp3007
Rp3008
ag16
(g17
(dp3009
g19
g20
(g21
(I0
tp3010
g23
tp3011
Rp3012
(I1
(L1L
tp3013
g30
I00
(lp3014
g36
atp3015
bsg39
Nstp3016
Rp3017
a(dp3018
g118
(dp3019
g120
g2955
sg121
(lp3020
(dp3021
g124
g127
sg128
g2970
sa(dp3022
g124
g131
sg128
g2976
sa(dp3023
g124
g134
sg128
g2986
sasstp3024
bsbag1
(g2
g3
Ntp3025
Rp3026
(dp3027
g7
g8
sg9
g10
sg11
g1
(g12
g3
Ntp3028
Rp3029
((lp3030
g41
ag16
(g17
(dp3031
g19
g20
(g21
(I0
tp3032
g23
tp3033
Rp3034
(I1
(L2L
tp3035
g30
I00
(lp3036
S'5418697'
p3037
aS'5518696'
p3038
atp3039
bsg39
Nstp3040
Rp3041
a(lp3042
g20
(g21
(I0
tp3043
g23
tp3044
Rp3045
(I1
(L1L
L2L
tp3046
g61
I00
S'\x00\x00\x00\x00\x00\x00\xf0?\x00\x00\x00\x00\x00\x00\xf0?'
p3047
tp3048
bag20
(g21
(I0
tp3049
g23
tp3050
Rp3051
(I1
(L2L
L2L
tp3052
g30
I00
(lp3053
V16 | var newTab = this.$window.open();
p3054
aV16 | var newTab = this.$window.open();
p3055
aS'AVQFHq9cePvB1HupEiPK'
p3056
aS'AVQFJXM4ePvB1HupEiPS'
p3057
atp3058
bag20
(g21
(I0
tp3059
g23
tp3060
Rp3061
(I1
(L1L
L2L
tp3062
g84
I00
S' \x0e\x00\x00\x00\x00\x00\x00 \x0e\x00\x00\x00\x00\x00\x00'
p3063
tp3064
ba(lp3065
g16
(g17
(dp3066
g19
g20
(g21
(I0
tp3067
g23
tp3068
Rp3069
(I1
(L1L
tp3070
g30
I00
(lp3071
g34
atp3072
bsg39
Nstp3073
Rp3074
ag16
(g17
(dp3075
g19
g20
(g21
(I0
tp3076
g23
tp3077
Rp3078
(I1
(L2L
tp3079
g30
I00
(lp3080
g35
ag37
atp3081
bsg39
Nstp3082
Rp3083
ag16
(g17
(dp3084
g19
g20
(g21
(I0
tp3085
g23
tp3086
Rp3087
(I1
(L1L
tp3088
g30
I00
(lp3089
g36
atp3090
bsg39
Nstp3091
Rp3092
a(dp3093
g118
(dp3094
g120
g3030
sg121
(lp3095
(dp3096
g124
g127
sg128
g3045
sa(dp3097
g124
g131
sg128
g3051
sa(dp3098
g124
g134
sg128
g3061
sasstp3099
bsbag1
(g2
g3
Ntp3100
Rp3101
(dp3102
g7
g8
sg9
g10
sg11
g1
(g12
g3
Ntp3103
Rp3104
((lp3105
g41
ag16
(g17
(dp3106
g19
g20
(g21
(I0
tp3107
g23
tp3108
Rp3109
(I1
(L2L
tp3110
g30
I00
(lp3111
S'5318715'
p3112
aS'5518686'
p3113
atp3114
bsg39
Nstp3115
Rp3116
a(lp3117
g20
(g21
(I0
tp3118
g23
tp3119
Rp3120
(I1
(L1L
L2L
tp3121
g61
I00
S'\x00\x00\x00\x00\x00\x00\xf0?\x00\x00\x00\x00\x00\x00\xf0?'
p3122
tp3123
bag20
(g21
(I0
tp3124
g23
tp3125
Rp3126
(I1
(L2L
L2L
tp3127
g30
I00
(lp3128
V2 | var FullErrorReport = (function () {
p3129
aV2 | var FullErrorReport = (function () {
p3130
aS'AVQFDr4YePvB1HupEiO1'
p3131
aS'AVQFJXM4ePvB1HupEiPS'
p3132
atp3133
bag20
(g21
(I0
tp3134
g23
tp3135
Rp3136
(I1
(L1L
L2L
tp3137
g84
I00
S'R\x0e\x00\x00\x00\x00\x00\x00R\x0e\x00\x00\x00\x00\x00\x00'
p3138
tp3139
ba(lp3140
g16
(g17
(dp3141
g19
g20
(g21
(I0
tp3142
g23
tp3143
Rp3144
(I1
(L1L
tp3145
g30
I00
(lp3146
g34
atp3147
bsg39
Nstp3148
Rp3149
ag16
(g17
(dp3150
g19
g20
(g21
(I0
tp3151
g23
tp3152
Rp3153
(I1
(L2L
tp3154
g30
I00
(lp3155
g35
ag37
atp3156
bsg39
Nstp3157
Rp3158
ag16
(g17
(dp3159
g19
g20
(g21
(I0
tp3160
g23
tp3161
Rp3162
(I1
(L1L
tp3163
g30
I00
(lp3164
g36
atp3165
bsg39
Nstp3166
Rp3167
a(dp3168
g118
(dp3169
g120
g3105
sg121
(lp3170
(dp3171
g124
g127
sg128
g3120
sa(dp3172
g124
g131
sg128
g3126
sa(dp3173
g124
g134
sg128
g3136
sasstp3174
bsbag1
(g2
g3
Ntp3175
Rp3176
(dp3177
g7
g8
sg9
g10
sg11
g1
(g12
g3
Ntp3178
Rp3179
((lp3180
g41
ag16
(g17
(dp3181
g19
g20
(g21
(I0
tp3182
g23
tp3183
Rp3184
(I1
(L3L
tp3185
g30
I00
(lp3186
S'184182'
p3187
aS'184253'
p3188
aS'184272'
p3189
atp3190
bsg39
Nstp3191
Rp3192
a(lp3193
g20
(g21
(I0
tp3194
g23
tp3195
Rp3196
(I1
(L1L
L3L
tp3197
g61
I00
S'\x00\x00\x00\x00\x00\x00\xf0?\x00\x00\x00\x00\x00\x00\xf0?\x00\x00\x00\x00\x00\x00\xf0?'
p3198
tp3199
bag20
(g21
(I0
tp3200
g23
tp3201
Rp3202
(I1
(L2L
L3L
tp3203
g30
I00
(lp3204
V[INFO] mqm-dal-db-entity-platform-api .................... SKIPPED
p3205
aV[INFO] mqm-bl-platform-br-plugin-impl .................... SKIPPED
p3206
aV[INFO] mqm-distributed-messaging-impl .................... SKIPPED
p3207
aS'AVQD9fmvePvB1HupEiKf'
p3208
aS'AVQD9fmvePvB1HupEiKf'
p3209
aS'AVQD9fmvePvB1HupEiKf'
p3210
atp3211
bag20
(g21
(I0
tp3212
g23
tp3213
Rp3214
(I1
(L1L
L3L
tp3215
g84
I00
S'9\x0f\x00\x00\x00\x00\x00\x009\x0f\x00\x00\x00\x00\x00\x009\x0f\x00\x00\x00\x00\x00\x00'
p3216
tp3217
ba(lp3218
g16
(g17
(dp3219
g19
g20
(g21
(I0
tp3220
g23
tp3221
Rp3222
(I1
(L1L
tp3223
g30
I00
(lp3224
g34
atp3225
bsg39
Nstp3226
Rp3227
ag16
(g17
(dp3228
g19
g20
(g21
(I0
tp3229
g23
tp3230
Rp3231
(I1
(L2L
tp3232
g30
I00
(lp3233
g35
ag37
atp3234
bsg39
Nstp3235
Rp3236
ag16
(g17
(dp3237
g19
g20
(g21
(I0
tp3238
g23
tp3239
Rp3240
(I1
(L1L
tp3241
g30
I00
(lp3242
g36
atp3243
bsg39
Nstp3244
Rp3245
a(dp3246
g118
(dp3247
g120
g3180
sg121
(lp3248
(dp3249
g124
g127
sg128
g3196
sa(dp3250
g124
g131
sg128
g3202
sa(dp3251
g124
g134
sg128
g3214
sasstp3252
bsbag1
(g2
g3
Ntp3253
Rp3254
(dp3255
g7
g8
sg9
g10
sg11
g1
(g12
g3
Ntp3256
Rp3257
((lp3258
g41
ag16
(g17
(dp3259
g19
g20
(g21
(I0
tp3260
g23
tp3261
Rp3262
(I1
(L3L
tp3263
g30
I00
(lp3264
S'184340'
p3265
aS'5318951'
p3266
aS'5418923'
p3267
atp3268
bsg39
Nstp3269
Rp3270
a(lp3271
g20
(g21
(I0
tp3272
g23
tp3273
Rp3274
(I1
(L1L
L3L
tp3275
g61
I00
S'\x00\x00\x00\x00\x00\x00\xf0?\x00\x00\x00\x00\x00\x00\xf0?\x00\x00\x00\x00\x00\x00\xf0?'
p3276
tp3277
bag20
(g21
(I0
tp3278
g23
tp3279
Rp3280
(I1
(L2L
L3L
tp3281
g30
I00
(lp3282
Vat java.util.concurrent.Executors$RunnableAdapter.call(Executors.java:511)
p3283
aVat java.util.concurrent.Executors$RunnableAdapter.call(Executors.java:511)
p3284
aVat java.util.concurrent.Executors$RunnableAdapter.call(Executors.java:511)
p3285
aS'AVQD9fmvePvB1HupEiKf'
p3286
aS'AVQFDr4YePvB1HupEiO1'
p3287
aS'AVQFHq9cePvB1HupEiPK'
p3288
atp3289
bag20
(g21
(I0
tp3290
g23
tp3291
Rp3292
(I1
(L1L
L3L
tp3293
g84
I00
S';\x0f\x00\x00\x00\x00\x00\x00;\x0f\x00\x00\x00\x00\x00\x00;\x0f\x00\x00\x00\x00\x00\x00'
p3294
tp3295
ba(lp3296
g16
(g17
(dp3297
g19
g20
(g21
(I0
tp3298
g23
tp3299
Rp3300
(I1
(L1L
tp3301
g30
I00
(lp3302
g34
atp3303
bsg39
Nstp3304
Rp3305
ag16
(g17
(dp3306
g19
g20
(g21
(I0
tp3307
g23
tp3308
Rp3309
(I1
(L2L
tp3310
g30
I00
(lp3311
g35
ag37
atp3312
bsg39
Nstp3313
Rp3314
ag16
(g17
(dp3315
g19
g20
(g21
(I0
tp3316
g23
tp3317
Rp3318
(I1
(L1L
tp3319
g30
I00
(lp3320
g36
atp3321
bsg39
Nstp3322
Rp3323
a(dp3324
g118
(dp3325
g120
g3258
sg121
(lp3326
(dp3327
g124
g127
sg128
g3274
sa(dp3328
g124
g131
sg128
g3280
sa(dp3329
g124
g134
sg128
g3292
sasstp3330
bsbag1
(g2
g3
Ntp3331
Rp3332
(dp3333
g7
g8
sg9
g10
sg11
g1
(g12
g3
Ntp3334
Rp3335
((lp3336
g41
ag16
(g17
(dp3337
g19
g20
(g21
(I0
tp3338
g23
tp3339
Rp3340
(I1
(L3L
tp3341
g30
I00
(lp3342
S'184266'
p3343
aS'184268'
p3344
aS'184299'
p3345
atp3346
bsg39
Nstp3347
Rp3348
a(lp3349
g20
(g21
(I0
tp3350
g23
tp3351
Rp3352
(I1
(L1L
L3L
tp3353
g61
I00
S'\x00\x00\x00\x00\x00\x00\xf0?\x00\x00\x00\x00\x00\x00\xf0?\x00\x00\x00\x00\x00\x00\xf0?'
p3354
tp3355
bag20
(g21
(I0
tp3356
g23
tp3357
Rp3358
(I1
(L2L
L3L
tp3359
g30
I00
(lp3360
V[INFO] mqm-pa-mapper-test-impl ........................... SKIPPED
p3361
aV[INFO] test-box-ci-integration ........................... SKIPPED
p3362
aV[INFO] ui-automation-framework ........................... SKIPPED
p3363
aS'AVQD9fmvePvB1HupEiKf'
p3364
aS'AVQD9fmvePvB1HupEiKf'
p3365
aS'AVQD9fmvePvB1HupEiKf'
p3366
atp3367
bag20
(g21
(I0
tp3368
g23
tp3369
Rp3370
(I1
(L1L
L3L
tp3371
g84
I00
S'\x81\x0f\x00\x00\x00\x00\x00\x00\x81\x0f\x00\x00\x00\x00\x00\x00\x81\x0f\x00\x00\x00\x00\x00\x00'
p3372
tp3373
ba(lp3374
g16
(g17
(dp3375
g19
g20
(g21
(I0
tp3376
g23
tp3377
Rp3378
(I1
(L1L
tp3379
g30
I00
(lp3380
g34
atp3381
bsg39
Nstp3382
Rp3383
ag16
(g17
(dp3384
g19
g20
(g21
(I0
tp3385
g23
tp3386
Rp3387
(I1
(L2L
tp3388
g30
I00
(lp3389
g35
ag37
atp3390
bsg39
Nstp3391
Rp3392
ag16
(g17
(dp3393
g19
g20
(g21
(I0
tp3394
g23
tp3395
Rp3396
(I1
(L1L
tp3397
g30
I00
(lp3398
g36
atp3399
bsg39
Nstp3400
Rp3401
a(dp3402
g118
(dp3403
g120
g3336
sg121
(lp3404
(dp3405
g124
g127
sg128
g3352
sa(dp3406
g124
g131
sg128
g3358
sa(dp3407
g124
g134
sg128
g3370
sasstp3408
bsbag1
(g2
g3
Ntp3409
Rp3410
(dp3411
g7
g8
sg9
g10
sg11
g1
(g12
g3
Ntp3412
Rp3413
((lp3414
g41
ag16
(g17
(dp3415
g19
g20
(g21
(I0
tp3416
g23
tp3417
Rp3418
(I1
(L3L
tp3419
g30
I00
(lp3420
S'184337'
p3421
aS'5418920'
p3422
aS'5518919'
p3423
atp3424
bsg39
Nstp3425
Rp3426
a(lp3427
g20
(g21
(I0
tp3428
g23
tp3429
Rp3430
(I1
(L1L
L3L
tp3431
g61
I00
S'\x00\x00\x00\x00\x00\x00\xf0?\x00\x00\x00\x00\x00\x00\xf0?\x00\x00\x00\x00\x00\x00\xf0?'
p3432
tp3433
bag20
(g21
(I0
tp3434
g23
tp3435
Rp3436
(I1
(L2L
L3L
tp3437
g30
I00
(lp3438
Vat org.apache.maven.lifecycle.internal.LifecycleThreadedBuilder$1.call(LifecycleThreadedBuilder.java:167)
p3439
aVat org.apache.maven.lifecycle.internal.LifecycleThreadedBuilder$1.call(LifecycleThreadedBuilder.java:167)
p3440
aVat org.apache.maven.lifecycle.internal.LifecycleThreadedBuilder$1.call(LifecycleThreadedBuilder.java:167)
p3441
aS'AVQD9fmvePvB1HupEiKf'
p3442
aS'AVQFHq9cePvB1HupEiPK'
p3443
aS'AVQFJXM4ePvB1HupEiPS'
p3444
atp3445
bag20
(g21
(I0
tp3446
g23
tp3447
Rp3448
(I1
(L1L
L3L
tp3449
g84
I00
S'\xc6\x0f\x00\x00\x00\x00\x00\x00\xc6\x0f\x00\x00\x00\x00\x00\x00\xc6\x0f\x00\x00\x00\x00\x00\x00'
p3450
tp3451
ba(lp3452
g16
(g17
(dp3453
g19
g20
(g21
(I0
tp3454
g23
tp3455
Rp3456
(I1
(L1L
tp3457
g30
I00
(lp3458
g34
atp3459
bsg39
Nstp3460
Rp3461
ag16
(g17
(dp3462
g19
g20
(g21
(I0
tp3463
g23
tp3464
Rp3465
(I1
(L2L
tp3466
g30
I00
(lp3467
g35
ag37
atp3468
bsg39
Nstp3469
Rp3470
ag16
(g17
(dp3471
g19
g20
(g21
(I0
tp3472
g23
tp3473
Rp3474
(I1
(L1L
tp3475
g30
I00
(lp3476
g36
atp3477
bsg39
Nstp3478
Rp3479
a(dp3480
g118
(dp3481
g120
g3414
sg121
(lp3482
(dp3483
g124
g127
sg128
g3430
sa(dp3484
g124
g131
sg128
g3436
sa(dp3485
g124
g134
sg128
g3448
sasstp3486
bsbag1
(g2
g3
Ntp3487
Rp3488
(dp3489
g7
g8
sg9
g10
sg11
g1
(g12
g3
Ntp3490
Rp3491
((lp3492
g41
ag16
(g17
(dp3493
g19
g20
(g21
(I0
tp3494
g23
tp3495
Rp3496
(I1
(L3L
tp3497
g30
I00
(lp3498
S'184202'
p3499
aS'184225'
p3500
aS'184270'
p3501
atp3502
bsg39
Nstp3503
Rp3504
a(lp3505
g20
(g21
(I0
tp3506
g23
tp3507
Rp3508
(I1
(L1L
L3L
tp3509
g61
I00
S'\x00\x00\x00\x00\x00\x00\xf0?\x00\x00\x00\x00\x00\x00\xf0?\x00\x00\x00\x00\x00\x00\xf0?'
p3510
tp3511
bag20
(g21
(I0
tp3512
g23
tp3513
Rp3514
(I1
(L2L
L3L
tp3515
g30
I00
(lp3516
V[INFO] mqm-rest-infra-api ................................ SKIPPED
p3517
aV[INFO] mqm-trend-sync-api ................................ SKIPPED
p3518
aV[INFO] mqm-reporting-impl ................................ SKIPPED
p3519
aS'AVQD9fmvePvB1HupEiKf'
p3520
aS'AVQD9fmvePvB1HupEiKf'
p3521
aS'AVQD9fmvePvB1HupEiKf'
p3522
atp3523
bag20
(g21
(I0
tp3524
g23
tp3525
Rp3526
(I1
(L1L
L3L
tp3527
g84
I00
S'\xef\x0f\x00\x00\x00\x00\x00\x00\xef\x0f\x00\x00\x00\x00\x00\x00\xef\x0f\x00\x00\x00\x00\x00\x00'
p3528
tp3529
ba(lp3530
g16
(g17
(dp3531
g19
g20
(g21
(I0
tp3532
g23
tp3533
Rp3534
(I1
(L1L
tp3535
g30
I00
(lp3536
g34
atp3537
bsg39
Nstp3538
Rp3539
ag16
(g17
(dp3540
g19
g20
(g21
(I0
tp3541
g23
tp3542
Rp3543
(I1
(L2L
tp3544
g30
I00
(lp3545
g35
ag37
atp3546
bsg39
Nstp3547
Rp3548
ag16
(g17
(dp3549
g19
g20
(g21
(I0
tp3550
g23
tp3551
Rp3552
(I1
(L1L
tp3553
g30
I00
(lp3554
g36
atp3555
bsg39
Nstp3556
Rp3557
a(dp3558
g118
(dp3559
g120
g3492
sg121
(lp3560
(dp3561
g124
g127
sg128
g3508
sa(dp3562
g124
g131
sg128
g3514
sa(dp3563
g124
g134
sg128
g3526
sasstp3564
bsbag1
(g2
g3
Ntp3565
Rp3566
(dp3567
g7
g8
sg9
g10
sg11
g1
(g12
g3
Ntp3568
Rp3569
((lp3570
g41
ag16
(g17
(dp3571
g19
g20
(g21
(I0
tp3572
g23
tp3573
Rp3574
(I1
(L3L
tp3575
g30
I00
(lp3576
S'184213'
p3577
aS'184229'
p3578
aS'184241'
p3579
atp3580
bsg39
Nstp3581
Rp3582
a(lp3583
g20
(g21
(I0
tp3584
g23
tp3585
Rp3586
(I1
(L1L
L3L
tp3587
g61
I00
S'\x00\x00\x00\x00\x00\x00\xf0?\x00\x00\x00\x00\x00\x00\xf0?\x00\x00\x00\x00\x00\x00\xf0?'
p3588
tp3589
bag20
(g21
(I0
tp3590
g23
tp3591
Rp3592
(I1
(L2L
L3L
tp3593
g30
I00
(lp3594
V[INFO] test-box-api ...................................... SKIPPED
p3595
aV[INFO] mqm-sync-api ...................................... SKIPPED
p3596
aV[INFO] test-box-dal ...................................... SKIPPED
p3597
aS'AVQD9fmvePvB1HupEiKf'
p3598
aS'AVQD9fmvePvB1HupEiKf'
p3599
aS'AVQD9fmvePvB1HupEiKf'
p3600
atp3601
bag20
(g21
(I0
tp3602
g23
tp3603
Rp3604
(I1
(L1L
L3L
tp3605
g84
I00
S'\x04\x10\x00\x00\x00\x00\x00\x00\x04\x10\x00\x00\x00\x00\x00\x00\x04\x10\x00\x00\x00\x00\x00\x00'
p3606
tp3607
ba(lp3608
g16
(g17
(dp3609
g19
g20
(g21
(I0
tp3610
g23
tp3611
Rp3612
(I1
(L1L
tp3613
g30
I00
(lp3614
g34
atp3615
bsg39
Nstp3616
Rp3617
ag16
(g17
(dp3618
g19
g20
(g21
(I0
tp3619
g23
tp3620
Rp3621
(I1
(L2L
tp3622
g30
I00
(lp3623
g35
ag37
atp3624
bsg39
Nstp3625
Rp3626
ag16
(g17
(dp3627
g19
g20
(g21
(I0
tp3628
g23
tp3629
Rp3630
(I1
(L1L
tp3631
g30
I00
(lp3632
g36
atp3633
bsg39
Nstp3634
Rp3635
a(dp3636
g118
(dp3637
g120
g3570
sg121
(lp3638
(dp3639
g124
g127
sg128
g3586
sa(dp3640
g124
g131
sg128
g3592
sa(dp3641
g124
g134
sg128
g3604
sasstp3642
bsbag1
(g2
g3
Ntp3643
Rp3644
(dp3645
g7
g8
sg9
g10
sg11
g1
(g12
g3
Ntp3646
Rp3647
((lp3648
g41
ag16
(g17
(dp3649
g19
g20
(g21
(I0
tp3650
g23
tp3651
Rp3652
(I1
(L2L
tp3653
g30
I00
(lp3654
S'5318723'
p3655
aS'5418695'
p3656
atp3657
bsg39
Nstp3658
Rp3659
a(lp3660
g20
(g21
(I0
tp3661
g23
tp3662
Rp3663
(I1
(L1L
L2L
tp3664
g61
I00
S'\x00\x00\x00\x00\x00\x00\xf0?\x00\x00\x00\x00\x00\x00\xf0?'
p3665
tp3666
bag20
(g21
(I0
tp3667
g23
tp3668
Rp3669
(I1
(L2L
L2L
tp3670
g30
I00
(lp3671
V15 | var _this = this;
p3672
aV15 | var _this = this;
p3673
aS'AVQFDr4YePvB1HupEiO1'
p3674
aS'AVQFHq9cePvB1HupEiPK'
p3675
atp3676
bag20
(g21
(I0
tp3677
g23
tp3678
Rp3679
(I1
(L1L
L2L
tp3680
g84
I00
S'\x1f\x10\x00\x00\x00\x00\x00\x00\x1f\x10\x00\x00\x00\x00\x00\x00'
p3681
tp3682
ba(lp3683
g16
(g17
(dp3684
g19
g20
(g21
(I0
tp3685
g23
tp3686
Rp3687
(I1
(L1L
tp3688
g30
I00
(lp3689
g34
atp3690
bsg39
Nstp3691
Rp3692
ag16
(g17
(dp3693
g19
g20
(g21
(I0
tp3694
g23
tp3695
Rp3696
(I1
(L2L
tp3697
g30
I00
(lp3698
g35
ag37
atp3699
bsg39
Nstp3700
Rp3701
ag16
(g17
(dp3702
g19
g20
(g21
(I0
tp3703
g23
tp3704
Rp3705
(I1
(L1L
tp3706
g30
I00
(lp3707
g36
atp3708
bsg39
Nstp3709
Rp3710
a(dp3711
g118
(dp3712
g120
g3648
sg121
(lp3713
(dp3714
g124
g127
sg128
g3663
sa(dp3715
g124
g131
sg128
g3669
sa(dp3716
g124
g134
sg128
g3679
sasstp3717
bsbag1
(g2
g3
Ntp3718
Rp3719
(dp3720
g7
g8
sg9
g10
sg11
g1
(g12
g3
Ntp3721
Rp3722
((lp3723
g41
ag16
(g17
(dp3724
g19
g20
(g21
(I0
tp3725
g23
tp3726
Rp3727
(I1
(L3L
tp3728
g30
I00
(lp3729
S'184238'
p3730
aS'184250'
p3731
aS'184251'
p3732
atp3733
bsg39
Nstp3734
Rp3735
a(lp3736
g20
(g21
(I0
tp3737
g23
tp3738
Rp3739
(I1
(L1L
L3L
tp3740
g61
I00
S'\x00\x00\x00\x00\x00\x00\xf0?\x00\x00\x00\x00\x00\x00\xf0?\x00\x00\x00\x00\x00\x00\xf0?'
p3741
tp3742
bag20
(g21
(I0
tp3743
g23
tp3744
Rp3745
(I1
(L2L
L3L
tp3746
g30
I00
(lp3747
V[INFO] mqm-ps-schema-management-impl ..................... SKIPPED
p3748
aV[INFO] mqm-distributed-messaging-api ..................... SKIPPED
p3749
aV[INFO] mqm-ps-platform-services-impl ..................... SKIPPED
p3750
aS'AVQD9fmvePvB1HupEiKf'
p3751
aS'AVQD9fmvePvB1HupEiKf'
p3752
aS'AVQD9fmvePvB1HupEiKf'
p3753
atp3754
bag20
(g21
(I0
tp3755
g23
tp3756
Rp3757
(I1
(L1L
L3L
tp3758
g84
I00
S'\xbd\x10\x00\x00\x00\x00\x00\x00\xbd\x10\x00\x00\x00\x00\x00\x00\xbd\x10\x00\x00\x00\x00\x00\x00'
p3759
tp3760
ba(lp3761
g16
(g17
(dp3762
g19
g20
(g21
(I0
tp3763
g23
tp3764
Rp3765
(I1
(L1L
tp3766
g30
I00
(lp3767
g34
atp3768
bsg39
Nstp3769
Rp3770
ag16
(g17
(dp3771
g19
g20
(g21
(I0
tp3772
g23
tp3773
Rp3774
(I1
(L2L
tp3775
g30
I00
(lp3776
g35
ag37
atp3777
bsg39
Nstp3778
Rp3779
ag16
(g17
(dp3780
g19
g20
(g21
(I0
tp3781
g23
tp3782
Rp3783
(I1
(L1L
tp3784
g30
I00
(lp3785
g36
atp3786
bsg39
Nstp3787
Rp3788
a(dp3789
g118
(dp3790
g120
g3723
sg121
(lp3791
(dp3792
g124
g127
sg128
g3739
sa(dp3793
g124
g131
sg128
g3745
sa(dp3794
g124
g134
sg128
g3757
sasstp3795
bsbag1
(g2
g3
Ntp3796
Rp3797
(dp3798
g7
g8
sg9
g10
sg11
g1
(g12
g3
Ntp3799
Rp3800
((lp3801
g41
ag16
(g17
(dp3802
g19
g20
(g21
(I0
tp3803
g23
tp3804
Rp3805
(I1
(L2L
tp3806
g30
I00
(lp3807
S'184190'
p3808
aS'184265'
p3809
atp3810
bsg39
Nstp3811
Rp3812
a(lp3813
g20
(g21
(I0
tp3814
g23
tp3815
Rp3816
(I1
(L1L
L2L
tp3817
g61
I00
S'\x00\x00\x00\x00\x00\x00\xf0?\x00\x00\x00\x00\x00\x00\xf0?'
p3818
tp3819
bag20
(g21
(I0
tp3820
g23
tp3821
Rp3822
(I1
(L2L
L2L
tp3823
g30
I00
(lp3824
V[INFO] mqm-analytics-common-api .......................... SKIPPED
p3825
aV[INFO] mqm-tests-execution-impl .......................... SKIPPED
p3826
aS'AVQD9fmvePvB1HupEiKf'
p3827
aS'AVQD9fmvePvB1HupEiKf'
p3828
atp3829
bag20
(g21
(I0
tp3830
g23
tp3831
Rp3832
(I1
(L1L
L2L
tp3833
g84
I00
S'\xd6\x10\x00\x00\x00\x00\x00\x00\xd6\x10\x00\x00\x00\x00\x00\x00'
p3834
tp3835
ba(lp3836
g16
(g17
(dp3837
g19
g20
(g21
(I0
tp3838
g23
tp3839
Rp3840
(I1
(L1L
tp3841
g30
I00
(lp3842
g34
atp3843
bsg39
Nstp3844
Rp3845
ag16
(g17
(dp3846
g19
g20
(g21
(I0
tp3847
g23
tp3848
Rp3849
(I1
(L2L
tp3850
g30
I00
(lp3851
g35
ag37
atp3852
bsg39
Nstp3853
Rp3854
ag16
(g17
(dp3855
g19
g20
(g21
(I0
tp3856
g23
tp3857
Rp3858
(I1
(L1L
tp3859
g30
I00
(lp3860
g36
atp3861
bsg39
Nstp3862
Rp3863
a(dp3864
g118
(dp3865
g120
g3801
sg121
(lp3866
(dp3867
g124
g127
sg128
g3816
sa(dp3868
g124
g131
sg128
g3822
sa(dp3869
g124
g134
sg128
g3832
sasstp3870
bsbag1
(g2
g3
Ntp3871
Rp3872
(dp3873
g7
g8
sg9
g10
sg11
g1
(g12
g3
Ntp3874
Rp3875
((lp3876
g41
ag16
(g17
(dp3877
g19
g20
(g21
(I0
tp3878
g23
tp3879
Rp3880
(I1
(L3L
tp3881
g30
I00
(lp3882
S'5318981'
p3883
aS'5418953'
p3884
aS'5518952'
p3885
atp3886
bsg39
Nstp3887
Rp3888
a(lp3889
g20
(g21
(I0
tp3890
g23
tp3891
Rp3892
(I1
(L1L
L3L
tp3893
g61
I00
S'\x00\x00\x00\x00\x00\x00\xf0?\x00\x00\x00\x00\x00\x00\xf0?\x00\x00\x00\x00\x00\x00\xf0?'
p3894
tp3895
bag20
(g21
(I0
tp3896
g23
tp3897
Rp3898
(I1
(L2L
L3L
tp3899
g30
I00
(lp3900
V[ERROR] [Help 1] http://cwiki.apache.org/confluence/display/MAVEN/MojoExecutionException
p3901
aV[ERROR] [Help 1] http://cwiki.apache.org/confluence/display/MAVEN/MojoExecutionException
p3902
aV[ERROR] [Help 1] http://cwiki.apache.org/confluence/display/MAVEN/MojoExecutionException
p3903
aS'AVQFDr4YePvB1HupEiO1'
p3904
aS'AVQFHq9cePvB1HupEiPK'
p3905
aS'AVQFJXM4ePvB1HupEiPS'
p3906
atp3907
bag20
(g21
(I0
tp3908
g23
tp3909
Rp3910
(I1
(L1L
L3L
tp3911
g84
I00
S'\xe8\x10\x00\x00\x00\x00\x00\x00\xe8\x10\x00\x00\x00\x00\x00\x00\xe8\x10\x00\x00\x00\x00\x00\x00'
p3912
tp3913
ba(lp3914
g16
(g17
(dp3915
g19
g20
(g21
(I0
tp3916
g23
tp3917
Rp3918
(I1
(L1L
tp3919
g30
I00
(lp3920
g34
atp3921
bsg39
Nstp3922
Rp3923
ag16
(g17
(dp3924
g19
g20
(g21
(I0
tp3925
g23
tp3926
Rp3927
(I1
(L2L
tp3928
g30
I00
(lp3929
g35
ag37
atp3930
bsg39
Nstp3931
Rp3932
ag16
(g17
(dp3933
g19
g20
(g21
(I0
tp3934
g23
tp3935
Rp3936
(I1
(L1L
tp3937
g30
I00
(lp3938
g36
atp3939
bsg39
Nstp3940
Rp3941
a(dp3942
g118
(dp3943
g120
g3876
sg121
(lp3944
(dp3945
g124
g127
sg128
g3892
sa(dp3946
g124
g131
sg128
g3898
sa(dp3947
g124
g134
sg128
g3910
sasstp3948
bsbag1
(g2
g3
Ntp3949
Rp3950
(dp3951
g7
g8
sg9
g10
sg11
g1
(g12
g3
Ntp3952
Rp3953
((lp3954
g41
ag16
(g17
(dp3955
g19
g20
(g21
(I0
tp3956
g23
tp3957
Rp3958
(I1
(L2L
tp3959
g30
I00
(lp3960
S'5318972'
p3961
aS'5418944'
p3962
atp3963
bsg39
Nstp3964
Rp3965
a(lp3966
g20
(g21
(I0
tp3967
g23
tp3968
Rp3969
(I1
(L1L
L2L
tp3970
g61
I00
S'\x00\x00\x00\x00\x00\x00\xf0?\x00\x00\x00\x00\x00\x00\xf0?'
p3971
tp3972
bag20
(g21
(I0
tp3973
g23
tp3974
Rp3975
(I1
(L2L
L2L
tp3976
g30
I00
(lp3977
Vat org.apache.commons.exec.DefaultExecutor.executeInternal(DefaultExecutor.java:377)
p3978
aVat org.apache.commons.exec.DefaultExecutor.executeInternal(DefaultExecutor.java:377)
p3979
aS'AVQFDr4YePvB1HupEiO1'
p3980
aS'AVQFHq9cePvB1HupEiPK'
p3981
atp3982
bag20
(g21
(I0
tp3983
g23
tp3984
Rp3985
(I1
(L1L
L2L
tp3986
g84
I00
S'\xff\x10\x00\x00\x00\x00\x00\x00\xff\x10\x00\x00\x00\x00\x00\x00'
p3987
tp3988
ba(lp3989
g16
(g17
(dp3990
g19
g20
(g21
(I0
tp3991
g23
tp3992
Rp3993
(I1
(L1L
tp3994
g30
I00
(lp3995
g34
atp3996
bsg39
Nstp3997
Rp3998
ag16
(g17
(dp3999
g19
g20
(g21
(I0
tp4000
g23
tp4001
Rp4002
(I1
(L2L
tp4003
g30
I00
(lp4004
g35
ag37
atp4005
bsg39
Nstp4006
Rp4007
ag16
(g17
(dp4008
g19
g20
(g21
(I0
tp4009
g23
tp4010
Rp4011
(I1
(L1L
tp4012
g30
I00
(lp4013
g36
atp4014
bsg39
Nstp4015
Rp4016
a(dp4017
g118
(dp4018
g120
g3954
sg121
(lp4019
(dp4020
g124
g127
sg128
g3969
sa(dp4021
g124
g131
sg128
g3975
sa(dp4022
g124
g134
sg128
g3985
sasstp4023
bsbag1
(g2
g3
Ntp4024
Rp4025
(dp4026
g7
g8
sg9
g10
sg11
g1
(g12
g3
Ntp4027
Rp4028
((lp4029
g41
ag16
(g17
(dp4030
g19
g20
(g21
(I0
tp4031
g23
tp4032
Rp4033
(I1
(L2L
tp4034
g30
I00
(lp4035
S'5318955'
p4036
aS'5518926'
p4037
atp4038
bsg39
Nstp4039
Rp4040
a(lp4041
g20
(g21
(I0
tp4042
g23
tp4043
Rp4044
(I1
(L1L
L2L
tp4045
g61
I00
S'\x00\x00\x00\x00\x00\x00\xf0?\x00\x00\x00\x00\x00\x00\xf0?'
p4046
tp4047
bag20
(g21
(I0
tp4048
g23
tp4049
Rp4050
(I1
(L2L
L2L
tp4051
g30
I00
(lp4052
Vat java.lang.Thread.run(Thread.java:745)
p4053
aVat java.lang.Thread.run(Thread.java:745)
p4054
aS'AVQFDr4YePvB1HupEiO1'
p4055
aS'AVQFJXM4ePvB1HupEiPS'
p4056
atp4057
bag20
(g21
(I0
tp4058
g23
tp4059
Rp4060
(I1
(L1L
L2L
tp4061
g84
I00
S'u\x11\x00\x00\x00\x00\x00\x00u\x11\x00\x00\x00\x00\x00\x00'
p4062
tp4063
ba(lp4064
g16
(g17
(dp4065
g19
g20
(g21
(I0
tp4066
g23
tp4067
Rp4068
(I1
(L1L
tp4069
g30
I00
(lp4070
g34
atp4071
bsg39
Nstp4072
Rp4073
ag16
(g17
(dp4074
g19
g20
(g21
(I0
tp4075
g23
tp4076
Rp4077
(I1
(L2L
tp4078
g30
I00
(lp4079
g35
ag37
atp4080
bsg39
Nstp4081
Rp4082
ag16
(g17
(dp4083
g19
g20
(g21
(I0
tp4084
g23
tp4085
Rp4086
(I1
(L1L
tp4087
g30
I00
(lp4088
g36
atp4089
bsg39
Nstp4090
Rp4091
a(dp4092
g118
(dp4093
g120
g4029
sg121
(lp4094
(dp4095
g124
g127
sg128
g4044
sa(dp4096
g124
g131
sg128
g4050
sa(dp4097
g124
g134
sg128
g4060
sasstp4098
bsbag1
(g2
g3
Ntp4099
Rp4100
(dp4101
g7
g8
sg9
g10
sg11
g1
(g12
g3
Ntp4102
Rp4103
((lp4104
g41
ag16
(g17
(dp4105
g19
g20
(g21
(I0
tp4106
g23
tp4107
Rp4108
(I1
(L3L
tp4109
g30
I00
(lp4110
S'184257'
p4111
aS'184274'
p4112
aS'184279'
p4113
atp4114
bsg39
Nstp4115
Rp4116
a(lp4117
g20
(g21
(I0
tp4118
g23
tp4119
Rp4120
(I1
(L1L
L3L
tp4121
g61
I00
S'\x00\x00\x00\x00\x00\x00\xf0?\x00\x00\x00\x00\x00\x00\xf0?\x00\x00\x00\x00\x00\x00\xf0?'
p4122
tp4123
bag20
(g21
(I0
tp4124
g23
tp4125
Rp4126
(I1
(L2L
L3L
tp4127
g30
I00
(lp4128
V[INFO] mqm-ps-business-rules-impl ........................ SKIPPED
p4129
aV[INFO] mqm-query-translation-impl ........................ SKIPPED
p4130
aV[INFO] mqm-app-production-modules ........................ SKIPPED
p4131
aS'AVQD9fmvePvB1HupEiKf'
p4132
aS'AVQD9fmvePvB1HupEiKf'
p4133
aS'AVQD9fmvePvB1HupEiKf'
p4134
atp4135
bag20
(g21
(I0
tp4136
g23
tp4137
Rp4138
(I1
(L1L
L3L
tp4139
g84
I00
S'\xa9\x11\x00\x00\x00\x00\x00\x00\xa9\x11\x00\x00\x00\x00\x00\x00\xa9\x11\x00\x00\x00\x00\x00\x00'
p4140
tp4141
ba(lp4142
g16
(g17
(dp4143
g19
g20
(g21
(I0
tp4144
g23
tp4145
Rp4146
(I1
(L1L
tp4147
g30
I00
(lp4148
g34
atp4149
bsg39
Nstp4150
Rp4151
ag16
(g17
(dp4152
g19
g20
(g21
(I0
tp4153
g23
tp4154
Rp4155
(I1
(L2L
tp4156
g30
I00
(lp4157
g35
ag37
atp4158
bsg39
Nstp4159
Rp4160
ag16
(g17
(dp4161
g19
g20
(g21
(I0
tp4162
g23
tp4163
Rp4164
(I1
(L1L
tp4165
g30
I00
(lp4166
g36
atp4167
bsg39
Nstp4168
Rp4169
a(dp4170
g118
(dp4171
g120
g4104
sg121
(lp4172
(dp4173
g124
g127
sg128
g4120
sa(dp4174
g124
g131
sg128
g4126
sa(dp4175
g124
g134
sg128
g4138
sasstp4176
bsbag1
(g2
g3
Ntp4177
Rp4178
(dp4179
g7
g8
sg9
g10
sg11
g1
(g12
g3
Ntp4180
Rp4181
((lp4182
g41
ag16
(g17
(dp4183
g19
g20
(g21
(I0
tp4184
g23
tp4185
Rp4186
(I1
(L2L
tp4187
g30
I00
(lp4188
S'5318961'
p4189
aS'5418933'
p4190
atp4191
bsg39
Nstp4192
Rp4193
a(lp4194
g20
(g21
(I0
tp4195
g23
tp4196
Rp4197
(I1
(L1L
L2L
tp4198
g61
I00
S'\x00\x00\x00\x00\x00\x00\xf0?\x00\x00\x00\x00\x00\x00\xf0?'
p4199
tp4200
bag20
(g21
(I0
tp4201
g23
tp4202
Rp4203
(I1
(L2L
L2L
tp4204
g30
I00
(lp4205
Vat pl.allegro.tdr.gruntmaven.AbstractExecutableMojo.executeInternal(AbstractExecutableMojo.java:86)
p4206
aVat pl.allegro.tdr.gruntmaven.AbstractExecutableMojo.executeInternal(AbstractExecutableMojo.java:86)
p4207
aS'AVQFDr4YePvB1HupEiO1'
p4208
aS'AVQFHq9cePvB1HupEiPK'
p4209
atp4210
bag20
(g21
(I0
tp4211
g23
tp4212
Rp4213
(I1
(L1L
L2L
tp4214
g84
I00
S'\xe5\x11\x00\x00\x00\x00\x00\x00\xe5\x11\x00\x00\x00\x00\x00\x00'
p4215
tp4216
ba(lp4217
g16
(g17
(dp4218
g19
g20
(g21
(I0
tp4219
g23
tp4220
Rp4221
(I1
(L1L
tp4222
g30
I00
(lp4223
g34
atp4224
bsg39
Nstp4225
Rp4226
ag16
(g17
(dp4227
g19
g20
(g21
(I0
tp4228
g23
tp4229
Rp4230
(I1
(L2L
tp4231
g30
I00
(lp4232
g35
ag37
atp4233
bsg39
Nstp4234
Rp4235
ag16
(g17
(dp4236
g19
g20
(g21
(I0
tp4237
g23
tp4238
Rp4239
(I1
(L1L
tp4240
g30
I00
(lp4241
g36
atp4242
bsg39
Nstp4243
Rp4244
a(dp4245
g118
(dp4246
g120
g4182
sg121
(lp4247
(dp4248
g124
g127
sg128
g4197
sa(dp4249
g124
g131
sg128
g4203
sa(dp4250
g124
g134
sg128
g4213
sasstp4251
bsbag1
(g2
g3
Ntp4252
Rp4253
(dp4254
g7
g8
sg9
g10
sg11
g1
(g12
g3
Ntp4255
Rp4256
((lp4257
g41
ag16
(g17
(dp4258
g19
g20
(g21
(I0
tp4259
g23
tp4260
Rp4261
(I1
(L3L
tp4262
g30
I00
(lp4263
S'5318745'
p4264
aS'5418727'
p4265
aS'5518716'
p4266
atp4267
bsg39
Nstp4268
Rp4269
a(lp4270
g20
(g21
(I0
tp4271
g23
tp4272
Rp4273
(I1
(L1L
L3L
tp4274
g61
I00
S'\x00\x00\x00\x00\x00\x00\xf0?\x00\x00\x00\x00\x00\x00\xf0?\x00\x00\x00\x00\x00\x00\xf0?'
p4275
tp4276
bag20
(g21
(I0
tp4277
g23
tp4278
Rp4279
(I1
(L2L
L3L
tp4280
g30
I00
(lp4281
VAborted due to warnings.
p4282
aVAborted due to warnings.
p4283
aVAborted due to warnings.
p4284
aS'AVQFDr4YePvB1HupEiO1'
p4285
aS'AVQFHq9cePvB1HupEiPK'
p4286
aS'AVQFJXM4ePvB1HupEiPS'
p4287
atp4288
bag20
(g21
(I0
tp4289
g23
tp4290
Rp4291
(I1
(L1L
L3L
tp4292
g84
I00
S'\x02\x12\x00\x00\x00\x00\x00\x00\x02\x12\x00\x00\x00\x00\x00\x00\x02\x12\x00\x00\x00\x00\x00\x00'
p4293
tp4294
ba(lp4295
g16
(g17
(dp4296
g19
g20
(g21
(I0
tp4297
g23
tp4298
Rp4299
(I1
(L1L
tp4300
g30
I00
(lp4301
g34
atp4302
bsg39
Nstp4303
Rp4304
ag16
(g17
(dp4305
g19
g20
(g21
(I0
tp4306
g23
tp4307
Rp4308
(I1
(L2L
tp4309
g30
I00
(lp4310
g35
ag37
atp4311
bsg39
Nstp4312
Rp4313
ag16
(g17
(dp4314
g19
g20
(g21
(I0
tp4315
g23
tp4316
Rp4317
(I1
(L1L
tp4318
g30
I00
(lp4319
g36
atp4320
bsg39
Nstp4321
Rp4322
a(dp4323
g118
(dp4324
g120
g4257
sg121
(lp4325
(dp4326
g124
g127
sg128
g4273
sa(dp4327
g124
g131
sg128
g4279
sa(dp4328
g124
g134
sg128
g4291
sasstp4329
bsbag1
(g2
g3
Ntp4330
Rp4331
(dp4332
g7
g8
sg9
g10
sg11
g1
(g12
g3
Ntp4333
Rp4334
((lp4335
g41
ag16
(g17
(dp4336
g19
g20
(g21
(I0
tp4337
g23
tp4338
Rp4339
(I1
(L2L
tp4340
g30
I00
(lp4341
S'5318947'
p4342
aS'5418919'
p4343
atp4344
bsg39
Nstp4345
Rp4346
a(lp4347
g20
(g21
(I0
tp4348
g23
tp4349
Rp4350
(I1
(L1L
L2L
tp4351
g61
I00
S'\x00\x00\x00\x00\x00\x00\xf0?\x00\x00\x00\x00\x00\x00\xf0?'
p4352
tp4353
bag20
(g21
(I0
tp4354
g23
tp4355
Rp4356
(I1
(L2L
L2L
tp4357
g30
I00
(lp4358
Vat org.apache.maven.lifecycle.internal.LifecycleModuleBuilder.buildProject(LifecycleModuleBuilder.java:84)
p4359
aVat org.apache.maven.lifecycle.internal.LifecycleModuleBuilder.buildProject(LifecycleModuleBuilder.java:84)
p4360
aS'AVQFDr4YePvB1HupEiO1'
p4361
aS'AVQFHq9cePvB1HupEiPK'
p4362
atp4363
bag20
(g21
(I0
tp4364
g23
tp4365
Rp4366
(I1
(L1L
L2L
tp4367
g84
I00
S'\xea\x12\x00\x00\x00\x00\x00\x00\xea\x12\x00\x00\x00\x00\x00\x00'
p4368
tp4369
ba(lp4370
g16
(g17
(dp4371
g19
g20
(g21
(I0
tp4372
g23
tp4373
Rp4374
(I1
(L1L
tp4375
g30
I00
(lp4376
g34
atp4377
bsg39
Nstp4378
Rp4379
ag16
(g17
(dp4380
g19
g20
(g21
(I0
tp4381
g23
tp4382
Rp4383
(I1
(L2L
tp4384
g30
I00
(lp4385
g35
ag37
atp4386
bsg39
Nstp4387
Rp4388
ag16
(g17
(dp4389
g19
g20
(g21
(I0
tp4390
g23
tp4391
Rp4392
(I1
(L1L
tp4393
g30
I00
(lp4394
g36
atp4395
bsg39
Nstp4396
Rp4397
a(dp4398
g118
(dp4399
g120
g4335
sg121
(lp4400
(dp4401
g124
g127
sg128
g4350
sa(dp4402
g124
g131
sg128
g4356
sa(dp4403
g124
g134
sg128
g4366
sasstp4404
bsbag1
(g2
g3
Ntp4405
Rp4406
(dp4407
g7
g8
sg9
g10
sg11
g1
(g12
g3
Ntp4408
Rp4409
((lp4410
g41
ag16
(g17
(dp4411
g19
g20
(g21
(I0
tp4412
g23
tp4413
Rp4414
(I1
(L2L
tp4415
g30
I00
(lp4416
S'5318953'
p4417
aS'5418925'
p4418
atp4419
bsg39
Nstp4420
Rp4421
a(lp4422
g20
(g21
(I0
tp4423
g23
tp4424
Rp4425
(I1
(L1L
L2L
tp4426
g61
I00
S'\x00\x00\x00\x00\x00\x00\xf0?\x00\x00\x00\x00\x00\x00\xf0?'
p4427
tp4428
bag20
(g21
(I0
tp4429
g23
tp4430
Rp4431
(I1
(L2L
L2L
tp4432
g30
I00
(lp4433
Vat java.util.concurrent.ThreadPoolExecutor.runWorker(ThreadPoolExecutor.java:1142)
p4434
aVat java.util.concurrent.ThreadPoolExecutor.runWorker(ThreadPoolExecutor.java:1142)
p4435
aS'AVQFDr4YePvB1HupEiO1'
p4436
aS'AVQFHq9cePvB1HupEiPK'
p4437
atp4438
bag20
(g21
(I0
tp4439
g23
tp4440
Rp4441
(I1
(L1L
L2L
tp4442
g84
I00
S'h\x13\x00\x00\x00\x00\x00\x00h\x13\x00\x00\x00\x00\x00\x00'
p4443
tp4444
ba(lp4445
g16
(g17
(dp4446
g19
g20
(g21
(I0
tp4447
g23
tp4448
Rp4449
(I1
(L1L
tp4450
g30
I00
(lp4451
g34
atp4452
bsg39
Nstp4453
Rp4454
ag16
(g17
(dp4455
g19
g20
(g21
(I0
tp4456
g23
tp4457
Rp4458
(I1
(L2L
tp4459
g30
I00
(lp4460
g35
ag37
atp4461
bsg39
Nstp4462
Rp4463
ag16
(g17
(dp4464
g19
g20
(g21
(I0
tp4465
g23
tp4466
Rp4467
(I1
(L1L
tp4468
g30
I00
(lp4469
g36
atp4470
bsg39
Nstp4471
Rp4472
a(dp4473
g118
(dp4474
g120
g4410
sg121
(lp4475
(dp4476
g124
g127
sg128
g4425
sa(dp4477
g124
g131
sg128
g4431
sa(dp4478
g124
g134
sg128
g4441
sasstp4479
bsbag1
(g2
g3
Ntp4480
Rp4481
(dp4482
g7
g8
sg9
g10
sg11
g1
(g12
g3
Ntp4483
Rp4484
((lp4485
g41
ag16
(g17
(dp4486
g19
g20
(g21
(I0
tp4487
g23
tp4488
Rp4489
(I1
(L2L
tp4490
g30
I00
(lp4491
S'5318767'
p4492
aS'5518738'
p4493
atp4494
bsg39
Nstp4495
Rp4496
a(lp4497
g20
(g21
(I0
tp4498
g23
tp4499
Rp4500
(I1
(L1L
L2L
tp4501
g61
I00
S'\x00\x00\x00\x00\x00\x00\xf0?\x00\x00\x00\x00\x00\x00\xf0?'
p4502
tp4503
bag20
(g21
(I0
tp4504
g23
tp4505
Rp4506
(I1
(L2L
L2L
tp4507
g30
I00
(lp4508
VDone, but with warnings.
p4509
aVDone, but with warnings.
p4510
aS'AVQFDr4YePvB1HupEiO1'
p4511
aS'AVQFJXM4ePvB1HupEiPS'
p4512
atp4513
bag20
(g21
(I0
tp4514
g23
tp4515
Rp4516
(I1
(L1L
L2L
tp4517
g84
I00
S'o\x13\x00\x00\x00\x00\x00\x00o\x13\x00\x00\x00\x00\x00\x00'
p4518
tp4519
ba(lp4520
g16
(g17
(dp4521
g19
g20
(g21
(I0
tp4522
g23
tp4523
Rp4524
(I1
(L1L
tp4525
g30
I00
(lp4526
g34
atp4527
bsg39
Nstp4528
Rp4529
ag16
(g17
(dp4530
g19
g20
(g21
(I0
tp4531
g23
tp4532
Rp4533
(I1
(L2L
tp4534
g30
I00
(lp4535
g35
ag37
atp4536
bsg39
Nstp4537
Rp4538
ag16
(g17
(dp4539
g19
g20
(g21
(I0
tp4540
g23
tp4541
Rp4542
(I1
(L1L
tp4543
g30
I00
(lp4544
g36
atp4545
bsg39
Nstp4546
Rp4547
a(dp4548
g118
(dp4549
g120
g4485
sg121
(lp4550
(dp4551
g124
g127
sg128
g4500
sa(dp4552
g124
g131
sg128
g4506
sa(dp4553
g124
g134
sg128
g4516
sasstp4554
bsbag1
(g2
g3
Ntp4555
Rp4556
(dp4557
g7
g8
sg9
g10
sg11
g1
(g12
g3
Ntp4558
Rp4559
((lp4560
g41
ag16
(g17
(dp4561
g19
g20
(g21
(I0
tp4562
g23
tp4563
Rp4564
(I1
(L2L
tp4565
g30
I00
(lp4566
S'5318957'
p4567
aS'5518928'
p4568
atp4569
bsg39
Nstp4570
Rp4571
a(lp4572
g20
(g21
(I0
tp4573
g23
tp4574
Rp4575
(I1
(L1L
L2L
tp4576
g61
I00
S'\x00\x00\x00\x00\x00\x00\xf0?\x00\x00\x00\x00\x00\x00\xf0?'
p4577
tp4578
bag20
(g21
(I0
tp4579
g23
tp4580
Rp4581
(I1
(L2L
L2L
tp4582
g30
I00
(lp4583
Vat org.twdata.maven.mojoexecutor.MojoExecutor.executeMojoImpl(MojoExecutor.java:174)
p4584
aVat org.twdata.maven.mojoexecutor.MojoExecutor.executeMojoImpl(MojoExecutor.java:174)
p4585
aS'AVQFDr4YePvB1HupEiO1'
p4586
aS'AVQFJXM4ePvB1HupEiPS'
p4587
atp4588
bag20
(g21
(I0
tp4589
g23
tp4590
Rp4591
(I1
(L1L
L2L
tp4592
g84
I00
S'\x89\x13\x00\x00\x00\x00\x00\x00\x89\x13\x00\x00\x00\x00\x00\x00'
p4593
tp4594
ba(lp4595
g16
(g17
(dp4596
g19
g20
(g21
(I0
tp4597
g23
tp4598
Rp4599
(I1
(L1L
tp4600
g30
I00
(lp4601
g34
atp4602
bsg39
Nstp4603
Rp4604
ag16
(g17
(dp4605
g19
g20
(g21
(I0
tp4606
g23
tp4607
Rp4608
(I1
(L2L
tp4609
g30
I00
(lp4610
g35
ag37
atp4611
bsg39
Nstp4612
Rp4613
ag16
(g17
(dp4614
g19
g20
(g21
(I0
tp4615
g23
tp4616
Rp4617
(I1
(L1L
tp4618
g30
I00
(lp4619
g36
atp4620
bsg39
Nstp4621
Rp4622
a(dp4623
g118
(dp4624
g120
g4560
sg121
(lp4625
(dp4626
g124
g127
sg128
g4575
sa(dp4627
g124
g131
sg128
g4581
sa(dp4628
g124
g134
sg128
g4591
sasstp4629
bsbag1
(g2
g3
Ntp4630
Rp4631
(dp4632
g7
g8
sg9
g10
sg11
g1
(g12
g3
Ntp4633
Rp4634
((lp4635
g41
ag16
(g17
(dp4636
g19
g20
(g21
(I0
tp4637
g23
tp4638
Rp4639
(I1
(L3L
tp4640
g30
I00
(lp4641
S'184188'
p4642
aS'184280'
p4643
aS'184284'
p4644
atp4645
bsg39
Nstp4646
Rp4647
a(lp4648
g20
(g21
(I0
tp4649
g23
tp4650
Rp4651
(I1
(L1L
L3L
tp4652
g61
I00
S'\x00\x00\x00\x00\x00\x00\xf0?\x00\x00\x00\x00\x00\x00\xf0?\x00\x00\x00\x00\x00\x00\xf0?'
p4653
tp4654
bag20
(g21
(I0
tp4655
g23
tp4656
Rp4657
(I1
(L2L
L3L
tp4658
g30
I00
(lp4659
V[INFO] mqm-distributed-cache-api ......................... SKIPPED
p4660
aV[INFO] mqm-generate-entities-api ......................... SKIPPED
p4661
aV[INFO] mqm-schema-resources-impl ......................... SKIPPED
p4662
aS'AVQD9fmvePvB1HupEiKf'
p4663
aS'AVQD9fmvePvB1HupEiKf'
p4664
aS'AVQD9fmvePvB1HupEiKf'
p4665
atp4666
bag20
(g21
(I0
tp4667
g23
tp4668
Rp4669
(I1
(L1L
L3L
tp4670
g84
I00
S'V\x15\x00\x00\x00\x00\x00\x00V\x15\x00\x00\x00\x00\x00\x00V\x15\x00\x00\x00\x00\x00\x00'
p4671
tp4672
ba(lp4673
g16
(g17
(dp4674
g19
g20
(g21
(I0
tp4675
g23
tp4676
Rp4677
(I1
(L1L
tp4678
g30
I00
(lp4679
g34
atp4680
bsg39
Nstp4681
Rp4682
ag16
(g17
(dp4683
g19
g20
(g21
(I0
tp4684
g23
tp4685
Rp4686
(I1
(L2L
tp4687
g30
I00
(lp4688
g35
ag37
atp4689
bsg39
Nstp4690
Rp4691
ag16
(g17
(dp4692
g19
g20
(g21
(I0
tp4693
g23
tp4694
Rp4695
(I1
(L1L
tp4696
g30
I00
(lp4697
g36
atp4698
bsg39
Nstp4699
Rp4700
a(dp4701
g118
(dp4702
g120
g4635
sg121
(lp4703
(dp4704
g124
g127
sg128
g4651
sa(dp4705
g124
g131
sg128
g4657
sa(dp4706
g124
g134
sg128
g4669
sasstp4707
bsbag1
(g2
g3
Ntp4708
Rp4709
(dp4710
g7
g8
sg9
g10
sg11
g1
(g12
g3
Ntp4711
Rp4712
((lp4713
g41
ag16
(g17
(dp4714
g19
g20
(g21
(I0
tp4715
g23
tp4716
Rp4717
(I1
(L2L
tp4718
g30
I00
(lp4719
S'5318735'
p4720
aS'5518706'
p4721
atp4722
bsg39
Nstp4723
Rp4724
a(lp4725
g20
(g21
(I0
tp4726
g23
tp4727
Rp4728
(I1
(L1L
L2L
tp4729
g61
I00
S'\x00\x00\x00\x00\x00\x00\xf0?\x00\x00\x00\x00\x00\x00\xf0?'
p4730
tp4731
bag20
(g21
(I0
tp4732
g23
tp4733
Rp4734
(I1
(L2L
L2L
tp4735
g30
I00
(lp4736
V32 | var html = element.html();
p4737
aV32 | var html = element.html();
p4738
aS'AVQFDr4YePvB1HupEiO1'
p4739
aS'AVQFJXM4ePvB1HupEiPS'
p4740
atp4741
bag20
(g21
(I0
tp4742
g23
tp4743
Rp4744
(I1
(L1L
L2L
tp4745
g84
I00
S'\x0c\x17\x00\x00\x00\x00\x00\x00\x0c\x17\x00\x00\x00\x00\x00\x00'
p4746
tp4747
ba(lp4748
g16
(g17
(dp4749
g19
g20
(g21
(I0
tp4750
g23
tp4751
Rp4752
(I1
(L1L
tp4753
g30
I00
(lp4754
g34
atp4755
bsg39
Nstp4756
Rp4757
ag16
(g17
(dp4758
g19
g20
(g21
(I0
tp4759
g23
tp4760
Rp4761
(I1
(L2L
tp4762
g30
I00
(lp4763
g35
ag37
atp4764
bsg39
Nstp4765
Rp4766
ag16
(g17
(dp4767
g19
g20
(g21
(I0
tp4768
g23
tp4769
Rp4770
(I1
(L1L
tp4771
g30
I00
(lp4772
g36
atp4773
bsg39
Nstp4774
Rp4775
a(dp4776
g118
(dp4777
g120
g4713
sg121
(lp4778
(dp4779
g124
g127
sg128
g4728
sa(dp4780
g124
g131
sg128
g4734
sa(dp4781
g124
g134
sg128
g4744
sasstp4782
bsba.