(lp1
ccopy_reg
_reconstructor
p2
(cpandas.core.frame
DataFrame
p3
c__builtin__
object
p4
NtRp5
(dp6
S'_metadata'
p7
(lp8
sS'_typ'
p9
S'dataframe'
p10
sS'_data'
p11
g2
(cpandas.core.internals
BlockManager
p12
g4
NtRp13
((lp14
cpandas.indexes.base
_new_Index
p15
(cpandas.indexes.base
Index
p16
(dp17
S'data'
p18
cnumpy.core.multiarray
_reconstruct
p19
(cnumpy
ndarray
p20
(I0
tS'b'
tRp21
(I1
(L4L
tcnumpy
dtype
p22
(S'O8'
I0
I1
tRp23
(I3
S'|'
NNNI-1
I-1
I63
tbI00
(lp24
S'fail'
p25
aS'logs'
p26
aS'cluster'
p27
aS'idl'
p28
atbsS'name'
p29
NstRp30
ag15
(g16
(dp31
g18
g19
(g20
(I0
tS'b'
tRp32
(I1
(L3L
tg23
I00
(lp33
S'5318716'
p34
aS'5418688'
p35
aS'5518687'
p36
atbsg29
NstRp37
a(lp38
g19
(g20
(I0
tS'b'
tRp39
(I1
(L1L
L3L
tg22
(S'f8'
I0
I1
tRp40
(I3
S'<'
NNNI-1
I-1
I0
tbI00
S'\x00\x00\x00\x00\x00\x00\xf0?\x00\x00\x00\x00\x00\x00\xf0?\x00\x00\x00\x00\x00\x00\xf0?'
tbag19
(g20
(I0
tS'b'
tRp41
(I1
(L2L
L3L
tg23
I00
(lp42
V^ Missing "use strict" statement.
p43
aV^ Missing "use strict" statement.
p44
aV^ Missing "use strict" statement.
p45
aS'AVQFDr4YePvB1HupEiO1'
p46
aS'AVQFHq9cePvB1HupEiPK'
p47
aS'AVQFJXM4ePvB1HupEiPS'
p48
atbag19
(g20
(I0
tS'b'
tRp49
(I1
(L1L
L3L
tg22
(S'i8'
I0
I1
tRp50
(I3
S'<'
NNNI-1
I-1
I0
tbI00
S'\x95\x00\x00\x00\x00\x00\x00\x00\x95\x00\x00\x00\x00\x00\x00\x00\x95\x00\x00\x00\x00\x00\x00\x00'
tba(lp51
g15
(g16
(dp52
g18
g19
(g20
(I0
tS'b'
tRp53
(I1
(L1L
tg23
I00
(lp54
g25
atbsg29
NstRp55
ag15
(g16
(dp56
g18
g19
(g20
(I0
tS'b'
tRp57
(I1
(L2L
tg23
I00
(lp58
g26
ag28
atbsg29
NstRp59
ag15
(g16
(dp60
g18
g19
(g20
(I0
tS'b'
tRp61
(I1
(L1L
tg23
I00
(lp62
g27
atbsg29
NstRp63
a(dp64
S'0.14.1'
p65
(dp66
S'axes'
p67
g14
sS'blocks'
p68
(lp69
(dp70
S'mgr_locs'
p71
c__builtin__
slice
p72
(I0
I1
I1
tRp73
sS'values'
p74
g39
sa(dp75
g71
g72
(I1
I5
I2
tRp76
sg74
g41
sa(dp77
g71
g72
(I2
I3
I1
tRp78
sg74
g49
sasstbsbag2
(g3
g4
NtRp79
(dp80
g7
g8
sg9
g10
sg11
g2
(g12
g4
NtRp81
((lp82
g30
ag15
(g16
(dp83
g18
g19
(g20
(I0
tS'b'
tRp84
(I1
(L3L
tg23
I00
(lp85
S'184338'
p86
aS'5318949'
p87
aS'5518920'
p88
atbsg29
NstRp89
a(lp90
g19
(g20
(I0
tS'b'
tRp91
(I1
(L1L
L3L
tg40
I00
S'\x00\x00\x00\x00\x00\x00\xf0?\x00\x00\x00\x00\x00\x00\xf0?\x00\x00\x00\x00\x00\x00\xf0?'
tbag19
(g20
(I0
tS'b'
tRp92
(I1
(L2L
L3L
tg23
I00
(lp93
Vat org.apache.maven.lifecycle.internal.LifecycleThreadedBuilder$1.call(LifecycleThreadedBuilder.java:163)
p94
aVat org.apache.maven.lifecycle.internal.LifecycleThreadedBuilder$1.call(LifecycleThreadedBuilder.java:163)
p95
aVat org.apache.maven.lifecycle.internal.LifecycleThreadedBuilder$1.call(LifecycleThreadedBuilder.java:163)
p96
aS'AVQD9fmvePvB1HupEiKf'
p97
aS'AVQFDr4YePvB1HupEiO1'
p98
aS'AVQFJXM4ePvB1HupEiPS'
p99
atbag19
(g20
(I0
tS'b'
tRp100
(I1
(L1L
L3L
tg50
I00
S'\xaf\x01\x00\x00\x00\x00\x00\x00\xaf\x01\x00\x00\x00\x00\x00\x00\xaf\x01\x00\x00\x00\x00\x00\x00'
tba(lp101
g15
(g16
(dp102
g18
g19
(g20
(I0
tS'b'
tRp103
(I1
(L1L
tg23
I00
(lp104
g25
atbsg29
NstRp105
ag15
(g16
(dp106
g18
g19
(g20
(I0
tS'b'
tRp107
(I1
(L2L
tg23
I00
(lp108
g26
ag28
atbsg29
NstRp109
ag15
(g16
(dp110
g18
g19
(g20
(I0
tS'b'
tRp111
(I1
(L1L
tg23
I00
(lp112
g27
atbsg29
NstRp113
a(dp114
g65
(dp115
g67
g82
sg68
(lp116
(dp117
g71
g72
(I0
I1
I1
tRp118
sg74
g91
sa(dp119
g71
g72
(I1
I5
I2
tRp120
sg74
g92
sa(dp121
g71
g72
(I2
I3
I1
tRp122
sg74
g100
sasstbsbag2
(g3
g4
NtRp123
(dp124
g7
g8
sg9
g10
sg11
g2
(g12
g4
NtRp125
((lp126
g30
ag15
(g16
(dp127
g18
g19
(g20
(I0
tS'b'
tRp128
(I1
(L3L
tg23
I00
(lp129
S'184368'
p130
aS'5318984'
p131
aS'5418956'
p132
atbsg29
NstRp133
a(lp134
g19
(g20
(I0
tS'b'
tRp135
(I1
(L1L
L3L
tg40
I00
S'\x00\x00\x00\x00\x00\x00\xf0?\x00\x00\x00\x00\x00\x00\xf0?\x00\x00\x00\x00\x00\x00\xf0?'
tbag19
(g20
(I0
tS'b'
tRp136
(I1
(L2L
L3L
tg23
I00
(lp137
V[ERROR] mvn <goals> -rf :mqm-generate-entities-maven-plugin
p138
aV[ERROR] mvn <goals> -rf :mqm-web-ui
p139
aV[ERROR] mvn <goals> -rf :mqm-web-ui
p140
aS'AVQD9fmvePvB1HupEiKf'
p141
aS'AVQFDr4YePvB1HupEiO1'
p142
aS'AVQFHq9cePvB1HupEiPK'
p143
atbag19
(g20
(I0
tS'b'
tRp144
(I1
(L1L
L3L
tg50
I00
S'\x1c\x02\x00\x00\x00\x00\x00\x00\x1c\x02\x00\x00\x00\x00\x00\x00\x1c\x02\x00\x00\x00\x00\x00\x00'
tba(lp145
g15
(g16
(dp146
g18
g19
(g20
(I0
tS'b'
tRp147
(I1
(L1L
tg23
I00
(lp148
g25
atbsg29
NstRp149
ag15
(g16
(dp150
g18
g19
(g20
(I0
tS'b'
tRp151
(I1
(L2L
tg23
I00
(lp152
g26
ag28
atbsg29
NstRp153
ag15
(g16
(dp154
g18
g19
(g20
(I0
tS'b'
tRp155
(I1
(L1L
tg23
I00
(lp156
g27
atbsg29
NstRp157
a(dp158
g65
(dp159
g67
g126
sg68
(lp160
(dp161
g71
g72
(I0
I1
I1
tRp162
sg74
g135
sa(dp163
g71
g72
(I1
I5
I2
tRp164
sg74
g136
sa(dp165
g71
g72
(I2
I3
I1
tRp166
sg74
g144
sasstbsbag2
(g3
g4
NtRp167
(dp168
g7
g8
sg9
g10
sg11
g2
(g12
g4
NtRp169
((lp170
g30
ag15
(g16
(dp171
g18
g19
(g20
(I0
tS'b'
tRp172
(I1
(L2L
tg23
I00
(lp173
S'5318944'
p174
aS'5418916'
p175
atbsg29
NstRp176
a(lp177
g19
(g20
(I0
tS'b'
tRp178
(I1
(L1L
L2L
tg40
I00
S'\x00\x00\x00\x00\x00\x00\xf0?\x00\x00\x00\x00\x00\x00\xf0?'
tbag19
(g20
(I0
tS'b'
tRp179
(I1
(L2L
L2L
tg23
I00
(lp180
Vat org.apache.maven.lifecycle.internal.MojoExecutor.execute(MojoExecutor.java:217)
p181
aVat org.apache.maven.lifecycle.internal.MojoExecutor.execute(MojoExecutor.java:217)
p182
aS'AVQFDr4YePvB1HupEiO1'
p183
aS'AVQFHq9cePvB1HupEiPK'
p184
atbag19
(g20
(I0
tS'b'
tRp185
(I1
(L1L
L2L
tg50
I00
S'A\x02\x00\x00\x00\x00\x00\x00A\x02\x00\x00\x00\x00\x00\x00'
tba(lp186
g15
(g16
(dp187
g18
g19
(g20
(I0
tS'b'
tRp188
(I1
(L1L
tg23
I00
(lp189
g25
atbsg29
NstRp190
ag15
(g16
(dp191
g18
g19
(g20
(I0
tS'b'
tRp192
(I1
(L2L
tg23
I00
(lp193
g26
ag28
atbsg29
NstRp194
ag15
(g16
(dp195
g18
g19
(g20
(I0
tS'b'
tRp196
(I1
(L1L
tg23
I00
(lp197
g27
atbsg29
NstRp198
a(dp199
g65
(dp200
g67
g170
sg68
(lp201
(dp202
g71
g72
(I0
I1
I1
tRp203
sg74
g178
sa(dp204
g71
g72
(I1
I5
I2
tRp205
sg74
g179
sa(dp206
g71
g72
(I2
I3
I1
tRp207
sg74
g185
sasstbsbag2
(g3
g4
NtRp208
(dp209
g7
g8
sg9
g10
sg11
g2
(g12
g4
NtRp210
((lp211
g30
ag15
(g16
(dp212
g18
g19
(g20
(I0
tS'b'
tRp213
(I1
(L4L
tg23
I00
(lp214
S'184339'
p215
aS'5318952'
p216
aS'5418922'
p217
aS'5518921'
p218
atbsg29
NstRp219
a(lp220
g19
(g20
(I0
tS'b'
tRp221
(I1
(L1L
L4L
tg40
I00
S'\x00\x00\x00\x00\x00\x00\xf0?\x00\x00\x00\x00\x00\x00\xf0?\x00\x00\x00\x00\x00\x00\xf0?\x00\x00\x00\x00\x00\x00\xf0?'
tbag19
(g20
(I0
tS'b'
tRp222
(I1
(L2L
L4L
tg23
I00
(lp223
Vat java.util.concurrent.FutureTask.run(FutureTask.java:266)
p224
aVat java.util.concurrent.FutureTask.run(FutureTask.java:266)
p225
aVat java.util.concurrent.FutureTask.run(FutureTask.java:266)
p226
aVat java.util.concurrent.FutureTask.run(FutureTask.java:266)
p227
aS'AVQD9fmvePvB1HupEiKf'
p228
aS'AVQFDr4YePvB1HupEiO1'
p229
aS'AVQFHq9cePvB1HupEiPK'
p230
aS'AVQFJXM4ePvB1HupEiPS'
p231
atbag19
(g20
(I0
tS'b'
tRp232
(I1
(L1L
L4L
tg50
I00
S'e\x02\x00\x00\x00\x00\x00\x00e\x02\x00\x00\x00\x00\x00\x00e\x02\x00\x00\x00\x00\x00\x00e\x02\x00\x00\x00\x00\x00\x00'
tba(lp233
g15
(g16
(dp234
g18
g19
(g20
(I0
tS'b'
tRp235
(I1
(L1L
tg23
I00
(lp236
g25
atbsg29
NstRp237
ag15
(g16
(dp238
g18
g19
(g20
(I0
tS'b'
tRp239
(I1
(L2L
tg23
I00
(lp240
g26
ag28
atbsg29
NstRp241
ag15
(g16
(dp242
g18
g19
(g20
(I0
tS'b'
tRp243
(I1
(L1L
tg23
I00
(lp244
g27
atbsg29
NstRp245
a(dp246
g65
(dp247
g67
g211
sg68
(lp248
(dp249
g71
g72
(I0
I1
I1
tRp250
sg74
g221
sa(dp251
g71
g72
(I1
I5
I2
tRp252
sg74
g222
sa(dp253
g71
g72
(I2
I3
I1
tRp254
sg74
g232
sasstbsbag2
(g3
g4
NtRp255
(dp256
g7
g8
sg9
g10
sg11
g2
(g12
g4
NtRp257
((lp258
g30
ag15
(g16
(dp259
g18
g19
(g20
(I0
tS'b'
tRp260
(I1
(L3L
tg23
I00
(lp261
S'184362'
p262
aS'5318978'
p263
aS'5418950'
p264
atbsg29
NstRp265
a(lp266
g19
(g20
(I0
tS'b'
tRp267
(I1
(L1L
L3L
tg40
I00
S'\x00\x00\x00\x00\x00\x00\xf0?\x00\x00\x00\x00\x00\x00\xf0?\x00\x00\x00\x00\x00\x00\xf0?'
tbag19
(g20
(I0
tS'b'
tRp268
(I1
(L2L
L3L
tg23
I00
(lp269
V[ERROR] Re-run Maven using the -X switch to enable full debug logging.
p270
aV[ERROR] Re-run Maven using the -X switch to enable full debug logging.
p271
aV[ERROR] Re-run Maven using the -X switch to enable full debug logging.
p272
aS'AVQD9fmvePvB1HupEiKf'
p273
aS'AVQFDr4YePvB1HupEiO1'
p274
aS'AVQFHq9cePvB1HupEiPK'
p275
atbag19
(g20
(I0
tS'b'
tRp276
(I1
(L1L
L3L
tg50
I00
S'\xb7\x02\x00\x00\x00\x00\x00\x00\xb7\x02\x00\x00\x00\x00\x00\x00\xb7\x02\x00\x00\x00\x00\x00\x00'
tba(lp277
g15
(g16
(dp278
g18
g19
(g20
(I0
tS'b'
tRp279
(I1
(L1L
tg23
I00
(lp280
g25
atbsg29
NstRp281
ag15
(g16
(dp282
g18
g19
(g20
(I0
tS'b'
tRp283
(I1
(L2L
tg23
I00
(lp284
g26
ag28
atbsg29
NstRp285
ag15
(g16
(dp286
g18
g19
(g20
(I0
tS'b'
tRp287
(I1
(L1L
tg23
I00
(lp288
g27
atbsg29
NstRp289
a(dp290
g65
(dp291
g67
g258
sg68
(lp292
(dp293
g71
g72
(I0
I1
I1
tRp294
sg74
g267
sa(dp295
g71
g72
(I1
I5
I2
tRp296
sg74
g268
sa(dp297
g71
g72
(I2
I3
I1
tRp298
sg74
g276
sasstbsbag2
(g3
g4
NtRp299
(dp300
g7
g8
sg9
g10
sg11
g2
(g12
g4
NtRp301
((lp302
g30
ag15
(g16
(dp303
g18
g19
(g20
(I0
tS'b'
tRp304
(I1
(L2L
tg23
I00
(lp305
S'183976'
p306
aS'184042'
p307
atbsg29
NstRp308
a(lp309
g19
(g20
(I0
tS'b'
tRp310
(I1
(L1L
L2L
tg40
I00
S'\x00\x00\x00\x00\x00\x00\xf0?\x00\x00\x00\x00\x00\x00\xf0?'
tbag19
(g20
(I0
tS'b'
tRp311
(I1
(L2L
L2L
tg23
I00
(lp312
VDownloaded: http://mydtbld0051.hpeswlab.net:8081/nexus/content/groups/mqm-public/org/ow2/asm/asm/5.0.3/asm-5.0.3.jar (52 KB at 3465.6 KB/sec)
p313
aVDownloaded: http://mydtbld0051.hpeswlab.net:8081/nexus/content/groups/mqm-public/org/ow2/asm/asm/5.0.3/asm-5.0.3.jar (52 KB at 3249.0 KB/sec)
p314
aS'AVQD9fmvePvB1HupEiKf'
p315
aS'AVQD9fmvePvB1HupEiKf'
p316
atbag19
(g20
(I0
tS'b'
tRp317
(I1
(L1L
L2L
tg50
I00
S'\x9a\x03\x00\x00\x00\x00\x00\x00\x9a\x03\x00\x00\x00\x00\x00\x00'
tba(lp318
g15
(g16
(dp319
g18
g19
(g20
(I0
tS'b'
tRp320
(I1
(L1L
tg23
I00
(lp321
g25
atbsg29
NstRp322
ag15
(g16
(dp323
g18
g19
(g20
(I0
tS'b'
tRp324
(I1
(L2L
tg23
I00
(lp325
g26
ag28
atbsg29
NstRp326
ag15
(g16
(dp327
g18
g19
(g20
(I0
tS'b'
tRp328
(I1
(L1L
tg23
I00
(lp329
g27
atbsg29
NstRp330
a(dp331
g65
(dp332
g67
g302
sg68
(lp333
(dp334
g71
g72
(I0
I1
I1
tRp335
sg74
g310
sa(dp336
g71
g72
(I1
I5
I2
tRp337
sg74
g311
sa(dp338
g71
g72
(I2
I3
I1
tRp339
sg74
g317
sasstbsbag2
(g3
g4
NtRp340
(dp341
g7
g8
sg9
g10
sg11
g2
(g12
g4
NtRp342
((lp343
g30
ag15
(g16
(dp344
g18
g19
(g20
(I0
tS'b'
tRp345
(I1
(L2L
tg23
I00
(lp346
S'5318714'
p347
aS'5518685'
p348
atbsg29
NstRp349
a(lp350
g19
(g20
(I0
tS'b'
tRp351
(I1
(L1L
L2L
tg40
I00
S'\x00\x00\x00\x00\x00\x00\xf0?\x00\x00\x00\x00\x00\x00\xf0?'
tbag19
(g20
(I0
tS'b'
tRp352
(I1
(L2L
L2L
tg23
I00
(lp353
Vapp/ui/generated/quality-center/tests/services/test-run-full-error-report.js
p354
aVapp/ui/generated/quality-center/tests/services/test-run-full-error-report.js
p355
aS'AVQFDr4YePvB1HupEiO1'
p356
aS'AVQFJXM4ePvB1HupEiPS'
p357
atbag19
(g20
(I0
tS'b'
tRp358
(I1
(L1L
L2L
tg50
I00
S'\xa8\x03\x00\x00\x00\x00\x00\x00\xa8\x03\x00\x00\x00\x00\x00\x00'
tba(lp359
g15
(g16
(dp360
g18
g19
(g20
(I0
tS'b'
tRp361
(I1
(L1L
tg23
I00
(lp362
g25
atbsg29
NstRp363
ag15
(g16
(dp364
g18
g19
(g20
(I0
tS'b'
tRp365
(I1
(L2L
tg23
I00
(lp366
g26
ag28
atbsg29
NstRp367
ag15
(g16
(dp368
g18
g19
(g20
(I0
tS'b'
tRp369
(I1
(L1L
tg23
I00
(lp370
g27
atbsg29
NstRp371
a(dp372
g65
(dp373
g67
g343
sg68
(lp374
(dp375
g71
g72
(I0
I1
I1
tRp376
sg74
g351
sa(dp377
g71
g72
(I1
I5
I2
tRp378
sg74
g352
sa(dp379
g71
g72
(I2
I3
I1
tRp380
sg74
g358
sasstbsbag2
(g3
g4
NtRp381
(dp382
g7
g8
sg9
g10
sg11
g2
(g12
g4
NtRp383
((lp384
g30
ag15
(g16
(dp385
g18
g19
(g20
(I0
tS'b'
tRp386
(I1
(L2L
tg23
I00
(lp387
S'184163'
p388
aS'184260'
p389
atbsg29
NstRp390
a(lp391
g19
(g20
(I0
tS'b'
tRp392
(I1
(L1L
L2L
tg40
I00
S'\x00\x00\x00\x00\x00\x00\xf0?\x00\x00\x00\x00\x00\x00\xf0?'
tbag19
(g20
(I0
tS'b'
tRp393
(I1
(L2L
L2L
tg23
I00
(lp394
V[INFO] mqm-storage-api ................................... SKIPPED
p395
aV[INFO] mqm-search-impl ................................... SKIPPED
p396
aS'AVQD9fmvePvB1HupEiKf'
p397
aS'AVQD9fmvePvB1HupEiKf'
p398
atbag19
(g20
(I0
tS'b'
tRp399
(I1
(L1L
L2L
tg50
I00
S'\xad\x03\x00\x00\x00\x00\x00\x00\xad\x03\x00\x00\x00\x00\x00\x00'
tba(lp400
g15
(g16
(dp401
g18
g19
(g20
(I0
tS'b'
tRp402
(I1
(L1L
tg23
I00
(lp403
g25
atbsg29
NstRp404
ag15
(g16
(dp405
g18
g19
(g20
(I0
tS'b'
tRp406
(I1
(L2L
tg23
I00
(lp407
g26
ag28
atbsg29
NstRp408
ag15
(g16
(dp409
g18
g19
(g20
(I0
tS'b'
tRp410
(I1
(L1L
tg23
I00
(lp411
g27
atbsg29
NstRp412
a(dp413
g65
(dp414
g67
g384
sg68
(lp415
(dp416
g71
g72
(I0
I1
I1
tRp417
sg74
g392
sa(dp418
g71
g72
(I1
I5
I2
tRp419
sg74
g393
sa(dp420
g71
g72
(I2
I3
I1
tRp421
sg74
g399
sasstbsbag2
(g3
g4
NtRp422
(dp423
g7
g8
sg9
g10
sg11
g2
(g12
g4
NtRp424
((lp425
g30
ag15
(g16
(dp426
g18
g19
(g20
(I0
tS'b'
tRp427
(I1
(L2L
tg23
I00
(lp428
S'5418875'
p429
aS'5518874'
p430
atbsg29
NstRp431
a(lp432
g19
(g20
(I0
tS'b'
tRp433
(I1
(L1L
L2L
tg40
I00
S'\x00\x00\x00\x00\x00\x00\xf0?\x00\x00\x00\x00\x00\x00\xf0?'
tbag19
(g20
(I0
tS'b'
tRp434
(I1
(L2L
L2L
tg23
I00
(lp435
V[INFO] mqm-web-ui ........................................ FAILURE [1:14.373s]
p436
aV[INFO] mqm-web-ui ........................................ FAILURE [1:13.926s]
p437
aS'AVQFHq9cePvB1HupEiPK'
p438
aS'AVQFJXM4ePvB1HupEiPS'
p439
atbag19
(g20
(I0
tS'b'
tRp440
(I1
(L1L
L2L
tg50
I00
S'g\x04\x00\x00\x00\x00\x00\x00g\x04\x00\x00\x00\x00\x00\x00'
tba(lp441
g15
(g16
(dp442
g18
g19
(g20
(I0
tS'b'
tRp443
(I1
(L1L
tg23
I00
(lp444
g25
atbsg29
NstRp445
ag15
(g16
(dp446
g18
g19
(g20
(I0
tS'b'
tRp447
(I1
(L2L
tg23
I00
(lp448
g26
ag28
atbsg29
NstRp449
ag15
(g16
(dp450
g18
g19
(g20
(I0
tS'b'
tRp451
(I1
(L1L
tg23
I00
(lp452
g27
atbsg29
NstRp453
a(dp454
g65
(dp455
g67
g425
sg68
(lp456
(dp457
g71
g72
(I0
I1
I1
tRp458
sg74
g433
sa(dp459
g71
g72
(I1
I5
I2
tRp460
sg74
g434
sa(dp461
g71
g72
(I2
I3
I1
tRp462
sg74
g440
sasstbsbag2
(g3
g4
NtRp463
(dp464
g7
g8
sg9
g10
sg11
g2
(g12
g4
NtRp465
((lp466
g30
ag15
(g16
(dp467
g18
g19
(g20
(I0
tS'b'
tRp468
(I1
(L3L
tg23
I00
(lp469
S'5318945'
p470
aS'5418917'
p471
aS'5518916'
p472
atbsg29
NstRp473
a(lp474
g19
(g20
(I0
tS'b'
tRp475
(I1
(L1L
L3L
tg40
I00
S'\x00\x00\x00\x00\x00\x00\xf0?\x00\x00\x00\x00\x00\x00\xf0?\x00\x00\x00\x00\x00\x00\xf0?'
tbag19
(g20
(I0
tS'b'
tRp476
(I1
(L2L
L3L
tg23
I00
(lp477
Vat org.apache.maven.lifecycle.internal.MojoExecutor.execute(MojoExecutor.java:153)
p478
aVat org.apache.maven.lifecycle.internal.MojoExecutor.execute(MojoExecutor.java:153)
p479
aVat org.apache.maven.lifecycle.internal.MojoExecutor.execute(MojoExecutor.java:153)
p480
aS'AVQFDr4YePvB1HupEiO1'
p481
aS'AVQFHq9cePvB1HupEiPK'
p482
aS'AVQFJXM4ePvB1HupEiPS'
p483
atbag19
(g20
(I0
tS'b'
tRp484
(I1
(L1L
L3L
tg50
I00
S'~\x04\x00\x00\x00\x00\x00\x00~\x04\x00\x00\x00\x00\x00\x00~\x04\x00\x00\x00\x00\x00\x00'
tba(lp485
g15
(g16
(dp486
g18
g19
(g20
(I0
tS'b'
tRp487
(I1
(L1L
tg23
I00
(lp488
g25
atbsg29
NstRp489
ag15
(g16
(dp490
g18
g19
(g20
(I0
tS'b'
tRp491
(I1
(L2L
tg23
I00
(lp492
g26
ag28
atbsg29
NstRp493
ag15
(g16
(dp494
g18
g19
(g20
(I0
tS'b'
tRp495
(I1
(L1L
tg23
I00
(lp496
g27
atbsg29
NstRp497
a(dp498
g65
(dp499
g67
g466
sg68
(lp500
(dp501
g71
g72
(I0
I1
I1
tRp502
sg74
g475
sa(dp503
g71
g72
(I1
I5
I2
tRp504
sg74
g476
sa(dp505
g71
g72
(I2
I3
I1
tRp506
sg74
g484
sasstbsbag2
(g3
g4
NtRp507
(dp508
g7
g8
sg9
g10
sg11
g2
(g12
g4
NtRp509
((lp510
g30
ag15
(g16
(dp511
g18
g19
(g20
(I0
tS'b'
tRp512
(I1
(L9L
tg23
I00
(lp513
S'184198'
p514
aS'184200'
p515
aS'184218'
p516
aS'184232'
p517
aS'184244'
p518
aS'184246'
p519
aS'184256'
p520
aS'184287'
p521
aS'184306'
p522
atbsg29
NstRp523
a(lp524
g19
(g20
(I0
tS'b'
tRp525
(I1
(L1L
L9L
tg40
I00
S'\x00\x00\x00\x00\x00\x00\xf0?\x00\x00\x00\x00\x00\x00\xf0?\x00\x00\x00\x00\x00\x00\xf0?\x00\x00\x00\x00\x00\x00\xf0?\x00\x00\x00\x00\x00\x00\xf0?\x00\x00\x00\x00\x00\x00\xf0?\x00\x00\x00\x00\x00\x00\xf0?\x00\x00\x00\x00\x00\x00\xf0?\x00\x00\x00\x00\x00\x00\xf0?'
tbag19
(g20
(I0
tS'b'
tRp526
(I1
(L2L
L9L
tg23
I00
(lp527
V[INFO] mqm-elastic-infra-api ............................. SKIPPED
p528
aV[INFO] mqm-infra-server-impl ............................. SKIPPED
p529
aV[INFO] mqm-dal-db-infra-impl ............................. SKIPPED
p530
aV[INFO] mqm-rest-platform-api ............................. SKIPPED
p531
aV[INFO] test-box-test-support ............................. SKIPPED
p532
aV[INFO] mqm-app-entities-impl ............................. SKIPPED
p533
aV[INFO] mqm-infra-common-impl ............................. SKIPPED
p534
aV[INFO] mqm-integration-tests ............................. SKIPPED
p535
aV[INFO] selenium-wrapper-impl ............................. SKIPPED
p536
aS'AVQD9fmvePvB1HupEiKf'
p537
aS'AVQD9fmvePvB1HupEiKf'
p538
aS'AVQD9fmvePvB1HupEiKf'
p539
aS'AVQD9fmvePvB1HupEiKf'
p540
aS'AVQD9fmvePvB1HupEiKf'
p541
aS'AVQD9fmvePvB1HupEiKf'
p542
aS'AVQD9fmvePvB1HupEiKf'
p543
aS'AVQD9fmvePvB1HupEiKf'
p544
aS'AVQD9fmvePvB1HupEiKf'
p545
atbag19
(g20
(I0
tS'b'
tRp546
(I1
(L1L
L9L
tg50
I00
S'\xf4\x04\x00\x00\x00\x00\x00\x00\xf4\x04\x00\x00\x00\x00\x00\x00\xf4\x04\x00\x00\x00\x00\x00\x00\xf4\x04\x00\x00\x00\x00\x00\x00\xf4\x04\x00\x00\x00\x00\x00\x00\xf4\x04\x00\x00\x00\x00\x00\x00\xf4\x04\x00\x00\x00\x00\x00\x00\xf4\x04\x00\x00\x00\x00\x00\x00\xf4\x04\x00\x00\x00\x00\x00\x00'
tba(lp547
g15
(g16
(dp548
g18
g19
(g20
(I0
tS'b'
tRp549
(I1
(L1L
tg23
I00
(lp550
g25
atbsg29
NstRp551
ag15
(g16
(dp552
g18
g19
(g20
(I0
tS'b'
tRp553
(I1
(L2L
tg23
I00
(lp554
g26
ag28
atbsg29
NstRp555
ag15
(g16
(dp556
g18
g19
(g20
(I0
tS'b'
tRp557
(I1
(L1L
tg23
I00
(lp558
g27
atbsg29
NstRp559
a(dp560
g65
(dp561
g67
g510
sg68
(lp562
(dp563
g71
g72
(I0
I1
I1
tRp564
sg74
g525
sa(dp565
g71
g72
(I1
I5
I2
tRp566
sg74
g526
sa(dp567
g71
g72
(I2
I3
I1
tRp568
sg74
g546
sasstbsbag2
(g3
g4
NtRp569
(dp570
g7
g8
sg9
g10
sg11
g2
(g12
g4
NtRp571
((lp572
g30
ag15
(g16
(dp573
g18
g19
(g20
(I0
tS'b'
tRp574
(I1
(L4L
tg23
I00
(lp575
S'184259'
p576
aS'184267'
p577
aS'184269'
p578
aS'184271'
p579
atbsg29
NstRp580
a(lp581
g19
(g20
(I0
tS'b'
tRp582
(I1
(L1L
L4L
tg40
I00
S'\x00\x00\x00\x00\x00\x00\xf0?\x00\x00\x00\x00\x00\x00\xf0?\x00\x00\x00\x00\x00\x00\xf0?\x00\x00\x00\x00\x00\x00\xf0?'
tbag19
(g20
(I0
tS'b'
tRp583
(I1
(L2L
L4L
tg23
I00
(lp584
V[INFO] mqm-sync-impl ..................................... SKIPPED
p585
aV[INFO] test-box-rest ..................................... SKIPPED
p586
aV[INFO] mqm-saas-impl ..................................... SKIPPED
p587
aV[INFO] mqm-ui-helper ..................................... SKIPPED
p588
aS'AVQD9fmvePvB1HupEiKf'
p589
aS'AVQD9fmvePvB1HupEiKf'
p590
aS'AVQD9fmvePvB1HupEiKf'
p591
aS'AVQD9fmvePvB1HupEiKf'
p592
atbag19
(g20
(I0
tS'b'
tRp593
(I1
(L1L
L4L
tg50
I00
S'\xf6\x04\x00\x00\x00\x00\x00\x00\xf6\x04\x00\x00\x00\x00\x00\x00\xf6\x04\x00\x00\x00\x00\x00\x00\xf6\x04\x00\x00\x00\x00\x00\x00'
tba(lp594
g15
(g16
(dp595
g18
g19
(g20
(I0
tS'b'
tRp596
(I1
(L1L
tg23
I00
(lp597
g25
atbsg29
NstRp598
ag15
(g16
(dp599
g18
g19
(g20
(I0
tS'b'
tRp600
(I1
(L2L
tg23
I00
(lp601
g26
ag28
atbsg29
NstRp602
ag15
(g16
(dp603
g18
g19
(g20
(I0
tS'b'
tRp604
(I1
(L1L
tg23
I00
(lp605
g27
atbsg29
NstRp606
a(dp607
g65
(dp608
g67
g572
sg68
(lp609
(dp610
g71
g72
(I0
I1
I1
tRp611
sg74
g582
sa(dp612
g71
g72
(I1
I5
I2
tRp613
sg74
g583
sa(dp614
g71
g72
(I2
I3
I1
tRp615
sg74
g593
sasstbsbag2
(g3
g4
NtRp616
(dp617
g7
g8
sg9
g10
sg11
g2
(g12
g4
NtRp618
((lp619
g30
ag15
(g16
(dp620
g18
g19
(g20
(I0
tS'b'
tRp621
(I1
(L4L
tg23
I00
(lp622
S'184196'
p623
aS'184239'
p624
aS'184300'
p625
aS'184305'
p626
atbsg29
NstRp627
a(lp628
g19
(g20
(I0
tS'b'
tRp629
(I1
(L1L
L4L
tg40
I00
S'\x00\x00\x00\x00\x00\x00\xf0?\x00\x00\x00\x00\x00\x00\xf0?\x00\x00\x00\x00\x00\x00\xf0?\x00\x00\x00\x00\x00\x00\xf0?'
tbag19
(g20
(I0
tS'b'
tRp630
(I1
(L2L
L4L
tg23
I00
(lp631
V[INFO] mqm-search-api .................................... SKIPPED
p632
aV[INFO] test-box-model .................................... SKIPPED
p633
aV[INFO] identifier-api .................................... SKIPPED
p634
aV[INFO] test-event-bus .................................... SKIPPED
p635
aS'AVQD9fmvePvB1HupEiKf'
p636
aS'AVQD9fmvePvB1HupEiKf'
p637
aS'AVQD9fmvePvB1HupEiKf'
p638
aS'AVQD9fmvePvB1HupEiKf'
p639
atbag19
(g20
(I0
tS'b'
tRp640
(I1
(L1L
L4L
tg50
I00
S'\xa8\x05\x00\x00\x00\x00\x00\x00\xa8\x05\x00\x00\x00\x00\x00\x00\xa8\x05\x00\x00\x00\x00\x00\x00\xa8\x05\x00\x00\x00\x00\x00\x00'
tba(lp641
g15
(g16
(dp642
g18
g19
(g20
(I0
tS'b'
tRp643
(I1
(L1L
tg23
I00
(lp644
g25
atbsg29
NstRp645
ag15
(g16
(dp646
g18
g19
(g20
(I0
tS'b'
tRp647
(I1
(L2L
tg23
I00
(lp648
g26
ag28
atbsg29
NstRp649
ag15
(g16
(dp650
g18
g19
(g20
(I0
tS'b'
tRp651
(I1
(L1L
tg23
I00
(lp652
g27
atbsg29
NstRp653
a(dp654
g65
(dp655
g67
g619
sg68
(lp656
(dp657
g71
g72
(I0
I1
I1
tRp658
sg74
g629
sa(dp659
g71
g72
(I1
I5
I2
tRp660
sg74
g630
sa(dp661
g71
g72
(I2
I3
I1
tRp662
sg74
g640
sasstbsbag2
(g3
g4
NtRp663
(dp664
g7
g8
sg9
g10
sg11
g2
(g12
g4
NtRp665
((lp666
g30
ag15
(g16
(dp667
g18
g19
(g20
(I0
tS'b'
tRp668
(I1
(L2L
tg23
I00
(lp669
S'5318743'
p670
aS'5418715'
p671
atbsg29
NstRp672
a(lp673
g19
(g20
(I0
tS'b'
tRp674
(I1
(L1L
L2L
tg40
I00
S'\x00\x00\x00\x00\x00\x00\xf0?\x00\x00\x00\x00\x00\x00\xf0?'
tbag19
(g20
(I0
tS'b'
tRp675
(I1
(L2L
L2L
tg23
I00
(lp676
VWarning: Task "jshint:ts-compiled" failed. Use --force to continue.
p677
aVWarning: Task "jshint:ts-compiled" failed. Use --force to continue.
p678
aS'AVQFDr4YePvB1HupEiO1'
p679
aS'AVQFHq9cePvB1HupEiPK'
p680
atbag19
(g20
(I0
tS'b'
tRp681
(I1
(L1L
L2L
tg50
I00
S'\xe5\x05\x00\x00\x00\x00\x00\x00\xe5\x05\x00\x00\x00\x00\x00\x00'
tba(lp682
g15
(g16
(dp683
g18
g19
(g20
(I0
tS'b'
tRp684
(I1
(L1L
tg23
I00
(lp685
g25
atbsg29
NstRp686
ag15
(g16
(dp687
g18
g19
(g20
(I0
tS'b'
tRp688
(I1
(L2L
tg23
I00
(lp689
g26
ag28
atbsg29
NstRp690
ag15
(g16
(dp691
g18
g19
(g20
(I0
tS'b'
tRp692
(I1
(L1L
tg23
I00
(lp693
g27
atbsg29
NstRp694
a(dp695
g65
(dp696
g67
g666
sg68
(lp697
(dp698
g71
g72
(I0
I1
I1
tRp699
sg74
g674
sa(dp700
g71
g72
(I1
I5
I2
tRp701
sg74
g675
sa(dp702
g71
g72
(I2
I3
I1
tRp703
sg74
g681
sasstbsbag2
(g3
g4
NtRp704
(dp705
g7
g8
sg9
g10
sg11
g2
(g12
g4
NtRp706
((lp707
g30
ag15
(g16
(dp708
g18
g19
(g20
(I0
tS'b'
tRp709
(I1
(L3L
tg23
I00
(lp710
S'184194'
p711
aS'184275'
p712
aS'184302'
p713
atbsg29
NstRp714
a(lp715
g19
(g20
(I0
tS'b'
tRp716
(I1
(L1L
L3L
tg40
I00
S'\x00\x00\x00\x00\x00\x00\xf0?\x00\x00\x00\x00\x00\x00\xf0?\x00\x00\x00\x00\x00\x00\xf0?'
tbag19
(g20
(I0
tS'b'
tRp717
(I1
(L2L
L3L
tg23
I00
(lp718
V[INFO] mqm-siteadmin-api ................................. SKIPPED
p719
aV[INFO] mqm-sanitize-impl ................................. SKIPPED
p720
aV[INFO] automation-common ................................. SKIPPED
p721
aS'AVQD9fmvePvB1HupEiKf'
p722
aS'AVQD9fmvePvB1HupEiKf'
p723
aS'AVQD9fmvePvB1HupEiKf'
p724
atbag19
(g20
(I0
tS'b'
tRp725
(I1
(L1L
L3L
tg50
I00
S'r\x06\x00\x00\x00\x00\x00\x00r\x06\x00\x00\x00\x00\x00\x00r\x06\x00\x00\x00\x00\x00\x00'
tba(lp726
g15
(g16
(dp727
g18
g19
(g20
(I0
tS'b'
tRp728
(I1
(L1L
tg23
I00
(lp729
g25
atbsg29
NstRp730
ag15
(g16
(dp731
g18
g19
(g20
(I0
tS'b'
tRp732
(I1
(L2L
tg23
I00
(lp733
g26
ag28
atbsg29
NstRp734
ag15
(g16
(dp735
g18
g19
(g20
(I0
tS'b'
tRp736
(I1
(L1L
tg23
I00
(lp737
g27
atbsg29
NstRp738
a(dp739
g65
(dp740
g67
g707
sg68
(lp741
(dp742
g71
g72
(I0
I1
I1
tRp743
sg74
g716
sa(dp744
g71
g72
(I1
I5
I2
tRp745
sg74
g717
sa(dp746
g71
g72
(I2
I3
I1
tRp747
sg74
g725
sasstbsbag2
(g3
g4
NtRp748
(dp749
g7
g8
sg9
g10
sg11
g2
(g12
g4
NtRp750
((lp751
g30
ag15
(g16
(dp752
g18
g19
(g20
(I0
tS'b'
tRp753
(I1
(L4L
tg23
I00
(lp754
S'184297'
p755
aS'184308'
p756
aS'5318911'
p757
aS'5518882'
p758
atbsg29
NstRp759
a(lp760
g19
(g20
(I0
tS'b'
tRp761
(I1
(L1L
L4L
tg40
I00
S'\x00\x00\x00\x00\x00\x00\xf0?\x00\x00\x00\x00\x00\x00\xf0?\x00\x00\x00\x00\x00\x00\xf0?\x00\x00\x00\x00\x00\x00\xf0?'
tbag19
(g20
(I0
tS'b'
tRp762
(I1
(L2L
L4L
tg23
I00
(lp763
V[INFO] mqm-boot .......................................... SKIPPED
p764
aV[INFO] reporter .......................................... SKIPPED
p765
aV[INFO] mqm-boot .......................................... SKIPPED
p766
aV[INFO] mqm-boot .......................................... SKIPPED
p767
aS'AVQD9fmvePvB1HupEiKf'
p768
aS'AVQD9fmvePvB1HupEiKf'
p769
aS'AVQFDr4YePvB1HupEiO1'
p770
aS'AVQFJXM4ePvB1HupEiPS'
p771
atbag19
(g20
(I0
tS'b'
tRp772
(I1
(L1L
L4L
tg50
I00
S'\xef\x06\x00\x00\x00\x00\x00\x00\xef\x06\x00\x00\x00\x00\x00\x00\xef\x06\x00\x00\x00\x00\x00\x00\xef\x06\x00\x00\x00\x00\x00\x00'
tba(lp773
g15
(g16
(dp774
g18
g19
(g20
(I0
tS'b'
tRp775
(I1
(L1L
tg23
I00
(lp776
g25
atbsg29
NstRp777
ag15
(g16
(dp778
g18
g19
(g20
(I0
tS'b'
tRp779
(I1
(L2L
tg23
I00
(lp780
g26
ag28
atbsg29
NstRp781
ag15
(g16
(dp782
g18
g19
(g20
(I0
tS'b'
tRp783
(I1
(L1L
tg23
I00
(lp784
g27
atbsg29
NstRp785
a(dp786
g65
(dp787
g67
g751
sg68
(lp788
(dp789
g71
g72
(I0
I1
I1
tRp790
sg74
g761
sa(dp791
g71
g72
(I1
I5
I2
tRp792
sg74
g762
sa(dp793
g71
g72
(I2
I3
I1
tRp794
sg74
g772
sasstbsbag2
(g3
g4
NtRp795
(dp796
g7
g8
sg9
g10
sg11
g2
(g12
g4
NtRp797
((lp798
g30
ag15
(g16
(dp799
g18
g19
(g20
(I0
tS'b'
tRp800
(I1
(L2L
tg23
I00
(lp801
S'5318960'
p802
aS'5518931'
p803
atbsg29
NstRp804
a(lp805
g19
(g20
(I0
tS'b'
tRp806
(I1
(L1L
L2L
tg40
I00
S'\x00\x00\x00\x00\x00\x00\xf0?\x00\x00\x00\x00\x00\x00\xf0?'
tbag19
(g20
(I0
tS'b'
tRp807
(I1
(L2L
L2L
tg23
I00
(lp808
Vat pl.allegro.tdr.gruntmaven.AbstractExecutableMojo.runExecutable(AbstractExecutableMojo.java:97)
p809
aVat pl.allegro.tdr.gruntmaven.AbstractExecutableMojo.runExecutable(AbstractExecutableMojo.java:97)
p810
aS'AVQFDr4YePvB1HupEiO1'
p811
aS'AVQFJXM4ePvB1HupEiPS'
p812
atbag19
(g20
(I0
tS'b'
tRp813
(I1
(L1L
L2L
tg50
I00
S'\xf3\x06\x00\x00\x00\x00\x00\x00\xf3\x06\x00\x00\x00\x00\x00\x00'
tba(lp814
g15
(g16
(dp815
g18
g19
(g20
(I0
tS'b'
tRp816
(I1
(L1L
tg23
I00
(lp817
g25
atbsg29
NstRp818
ag15
(g16
(dp819
g18
g19
(g20
(I0
tS'b'
tRp820
(I1
(L2L
tg23
I00
(lp821
g26
ag28
atbsg29
NstRp822
ag15
(g16
(dp823
g18
g19
(g20
(I0
tS'b'
tRp824
(I1
(L1L
tg23
I00
(lp825
g27
atbsg29
NstRp826
a(dp827
g65
(dp828
g67
g798
sg68
(lp829
(dp830
g71
g72
(I0
I1
I1
tRp831
sg74
g806
sa(dp832
g71
g72
(I1
I5
I2
tRp833
sg74
g807
sa(dp834
g71
g72
(I2
I3
I1
tRp835
sg74
g813
sasstbsbag2
(g3
g4
NtRp836
(dp837
g7
g8
sg9
g10
sg11
g2
(g12
g4
NtRp838
((lp839
g30
ag15
(g16
(dp840
g18
g19
(g20
(I0
tS'b'
tRp841
(I1
(L2L
tg23
I00
(lp842
S'18546'
p843
aS'181414'
p844
atbsg29
NstRp845
a(lp846
g19
(g20
(I0
tS'b'
tRp847
(I1
(L1L
L2L
tg40
I00
S'\x00\x00\x00\x00\x00\x00\xf0?\x00\x00\x00\x00\x00\x00\xf0?'
tbag19
(g20
(I0
tS'b'
tRp848
(I1
(L2L
L2L
tg23
I00
(lp849
VDownloaded: http://mydtbld0051.hpeswlab.net:8081/nexus/content/groups/mqm-public/org/apache/maven/maven-settings/2.2.1/maven-settings-2.2.1.pom (3 KB at 152.0 KB/sec)
p850
aVDownloaded: http://mydtbld0051.hpeswlab.net:8081/nexus/content/groups/mqm-public/org/apache/maven/maven-settings/2.2.0/maven-settings-2.2.0.pom (3 KB at 118.2 KB/sec)
p851
aS'AVQD9fmvePvB1HupEiKf'
p852
aS'AVQD9fmvePvB1HupEiKf'
p853
atbag19
(g20
(I0
tS'b'
tRp854
(I1
(L1L
L2L
tg50
I00
S'\xa3\x07\x00\x00\x00\x00\x00\x00\xa3\x07\x00\x00\x00\x00\x00\x00'
tba(lp855
g15
(g16
(dp856
g18
g19
(g20
(I0
tS'b'
tRp857
(I1
(L1L
tg23
I00
(lp858
g25
atbsg29
NstRp859
ag15
(g16
(dp860
g18
g19
(g20
(I0
tS'b'
tRp861
(I1
(L2L
tg23
I00
(lp862
g26
ag28
atbsg29
NstRp863
ag15
(g16
(dp864
g18
g19
(g20
(I0
tS'b'
tRp865
(I1
(L1L
tg23
I00
(lp866
g27
atbsg29
NstRp867
a(dp868
g65
(dp869
g67
g839
sg68
(lp870
(dp871
g71
g72
(I0
I1
I1
tRp872
sg74
g847
sa(dp873
g71
g72
(I1
I5
I2
tRp874
sg74
g848
sa(dp875
g71
g72
(I2
I3
I1
tRp876
sg74
g854
sasstbsbag2
(g3
g4
NtRp877
(dp878
g7
g8
sg9
g10
sg11
g2
(g12
g4
NtRp879
((lp880
g30
ag15
(g16
(dp881
g18
g19
(g20
(I0
tS'b'
tRp882
(I1
(L2L
tg23
I00
(lp883
S'184349'
p884
aS'184358'
p885
atbsg29
NstRp886
a(lp887
g19
(g20
(I0
tS'b'
tRp888
(I1
(L1L
L2L
tg40
I00
S'\x00\x00\x00\x00\x00\x00\xf0?\x00\x00\x00\x00\x00\x00\xf0?'
tbag19
(g20
(I0
tS'b'
tRp889
(I1
(L2L
L2L
tg23
I00
(lp890
VCaused by: org.sonatype.aether.resolution.DependencyResolutionException: Could not find artifact org.springframework:spring-context:jar:4.2.5.RELEASE
p891
aVCaused by: org.sonatype.aether.transfer.ArtifactNotFoundException: Could not find artifact org.springframework:spring-context:jar:4.2.5.RELEASE
p892
aS'AVQD9fmvePvB1HupEiKf'
p893
aS'AVQD9fmvePvB1HupEiKf'
p894
atbag19
(g20
(I0
tS'b'
tRp895
(I1
(L1L
L2L
tg50
I00
S'\xaa\x08\x00\x00\x00\x00\x00\x00\xaa\x08\x00\x00\x00\x00\x00\x00'
tba(lp896
g15
(g16
(dp897
g18
g19
(g20
(I0
tS'b'
tRp898
(I1
(L1L
tg23
I00
(lp899
g25
atbsg29
NstRp900
ag15
(g16
(dp901
g18
g19
(g20
(I0
tS'b'
tRp902
(I1
(L2L
tg23
I00
(lp903
g26
ag28
atbsg29
NstRp904
ag15
(g16
(dp905
g18
g19
(g20
(I0
tS'b'
tRp906
(I1
(L1L
tg23
I00
(lp907
g27
atbsg29
NstRp908
a(dp909
g65
(dp910
g67
g880
sg68
(lp911
(dp912
g71
g72
(I0
I1
I1
tRp913
sg74
g888
sa(dp914
g71
g72
(I1
I5
I2
tRp915
sg74
g889
sa(dp916
g71
g72
(I2
I3
I1
tRp917
sg74
g895
sasstbsbag2
(g3
g4
NtRp918
(dp919
g7
g8
sg9
g10
sg11
g2
(g12
g4
NtRp920
((lp921
g30
ag15
(g16
(dp922
g18
g19
(g20
(I0
tS'b'
tRp923
(I1
(L2L
tg23
I00
(lp924
S'183876'
p925
aS'183880'
p926
atbsg29
NstRp927
a(lp928
g19
(g20
(I0
tS'b'
tRp929
(I1
(L1L
L2L
tg40
I00
S'\x00\x00\x00\x00\x00\x00\xf0?\x00\x00\x00\x00\x00\x00\xf0?'
tbag19
(g20
(I0
tS'b'
tRp930
(I1
(L2L
L2L
tg23
I00
(lp931
VDownloaded: http://mydtbld0051.hpeswlab.net:8081/nexus/content/groups/mqm-public/org/objenesis/objenesis-parent/2.1/objenesis-parent-2.1.pom (17 KB at 1255.0 KB/sec)
p932
aVDownloaded: http://mydtbld0051.hpeswlab.net:8081/nexus/content/groups/mqm-public/org/objenesis/objenesis-parent/2.1/objenesis-parent-2.1.pom (17 KB at 1087.7 KB/sec)
p933
aS'AVQD9fmvePvB1HupEiKf'
p934
aS'AVQD9fmvePvB1HupEiKf'
p935
atbag19
(g20
(I0
tS'b'
tRp936
(I1
(L1L
L2L
tg50
I00
S'E\n\x00\x00\x00\x00\x00\x00E\n\x00\x00\x00\x00\x00\x00'
tba(lp937
g15
(g16
(dp938
g18
g19
(g20
(I0
tS'b'
tRp939
(I1
(L1L
tg23
I00
(lp940
g25
atbsg29
NstRp941
ag15
(g16
(dp942
g18
g19
(g20
(I0
tS'b'
tRp943
(I1
(L2L
tg23
I00
(lp944
g26
ag28
atbsg29
NstRp945
ag15
(g16
(dp946
g18
g19
(g20
(I0
tS'b'
tRp947
(I1
(L1L
tg23
I00
(lp948
g27
atbsg29
NstRp949
a(dp950
g65
(dp951
g67
g921
sg68
(lp952
(dp953
g71
g72
(I0
I1
I1
tRp954
sg74
g929
sa(dp955
g71
g72
(I1
I5
I2
tRp956
sg74
g930
sa(dp957
g71
g72
(I2
I3
I1
tRp958
sg74
g936
sasstbsbag2
(g3
g4
NtRp959
(dp960
g7
g8
sg9
g10
sg11
g2
(g12
g4
NtRp961
((lp962
g30
ag15
(g16
(dp963
g18
g19
(g20
(I0
tS'b'
tRp964
(I1
(L2L
tg23
I00
(lp965
S'183977'
p966
aS'184044'
p967
atbsg29
NstRp968
a(lp969
g19
(g20
(I0
tS'b'
tRp970
(I1
(L1L
L2L
tg40
I00
S'\x00\x00\x00\x00\x00\x00\xf0?\x00\x00\x00\x00\x00\x00\xf0?'
tbag19
(g20
(I0
tS'b'
tRp971
(I1
(L2L
L2L
tg23
I00
(lp972
VDownloaded: http://mydtbld0051.hpeswlab.net:8081/nexus/content/groups/mqm-public/org/objenesis/objenesis/2.1/objenesis-2.1.jar (41 KB at 2912.6 KB/sec)
p973
aVDownloaded: http://mydtbld0051.hpeswlab.net:8081/nexus/content/groups/mqm-public/org/objenesis/objenesis/2.1/objenesis-2.1.jar (41 KB at 2038.8 KB/sec)
p974
aS'AVQD9fmvePvB1HupEiKf'
p975
aS'AVQD9fmvePvB1HupEiKf'
p976
atbag19
(g20
(I0
tS'b'
tRp977
(I1
(L1L
L2L
tg50
I00
S'a\n\x00\x00\x00\x00\x00\x00a\n\x00\x00\x00\x00\x00\x00'
tba(lp978
g15
(g16
(dp979
g18
g19
(g20
(I0
tS'b'
tRp980
(I1
(L1L
tg23
I00
(lp981
g25
atbsg29
NstRp982
ag15
(g16
(dp983
g18
g19
(g20
(I0
tS'b'
tRp984
(I1
(L2L
tg23
I00
(lp985
g26
ag28
atbsg29
NstRp986
ag15
(g16
(dp987
g18
g19
(g20
(I0
tS'b'
tRp988
(I1
(L1L
tg23
I00
(lp989
g27
atbsg29
NstRp990
a(dp991
g65
(dp992
g67
g962
sg68
(lp993
(dp994
g71
g72
(I0
I1
I1
tRp995
sg74
g970
sa(dp996
g71
g72
(I1
I5
I2
tRp997
sg74
g971
sa(dp998
g71
g72
(I2
I3
I1
tRp999
sg74
g977
sasstbsbag2
(g3
g4
NtRp1000
(dp1001
g7
g8
sg9
g10
sg11
g2
(g12
g4
NtRp1002
((lp1003
g30
ag15
(g16
(dp1004
g18
g19
(g20
(I0
tS'b'
tRp1005
(I1
(L3L
tg23
I00
(lp1006
S'184343'
p1007
aS'5318954'
p1008
aS'5518925'
p1009
atbsg29
NstRp1010
a(lp1011
g19
(g20
(I0
tS'b'
tRp1012
(I1
(L1L
L3L
tg40
I00
S'\x00\x00\x00\x00\x00\x00\xf0?\x00\x00\x00\x00\x00\x00\xf0?\x00\x00\x00\x00\x00\x00\xf0?'
tbag19
(g20
(I0
tS'b'
tRp1013
(I1
(L2L
L3L
tg23
I00
(lp1014
Vat java.util.concurrent.ThreadPoolExecutor$Worker.run(ThreadPoolExecutor.java:617)
p1015
aVat java.util.concurrent.ThreadPoolExecutor$Worker.run(ThreadPoolExecutor.java:617)
p1016
aVat java.util.concurrent.ThreadPoolExecutor$Worker.run(ThreadPoolExecutor.java:617)
p1017
aS'AVQD9fmvePvB1HupEiKf'
p1018
aS'AVQFDr4YePvB1HupEiO1'
p1019
aS'AVQFJXM4ePvB1HupEiPS'
p1020
atbag19
(g20
(I0
tS'b'
tRp1021
(I1
(L1L
L3L
tg50
I00
S'f\n\x00\x00\x00\x00\x00\x00f\n\x00\x00\x00\x00\x00\x00f\n\x00\x00\x00\x00\x00\x00'
tba(lp1022
g15
(g16
(dp1023
g18
g19
(g20
(I0
tS'b'
tRp1024
(I1
(L1L
tg23
I00
(lp1025
g25
atbsg29
NstRp1026
ag15
(g16
(dp1027
g18
g19
(g20
(I0
tS'b'
tRp1028
(I1
(L2L
tg23
I00
(lp1029
g26
ag28
atbsg29
NstRp1030
ag15
(g16
(dp1031
g18
g19
(g20
(I0
tS'b'
tRp1032
(I1
(L1L
tg23
I00
(lp1033
g27
atbsg29
NstRp1034
a(dp1035
g65
(dp1036
g67
g1003
sg68
(lp1037
(dp1038
g71
g72
(I0
I1
I1
tRp1039
sg74
g1012
sa(dp1040
g71
g72
(I1
I5
I2
tRp1041
sg74
g1013
sa(dp1042
g71
g72
(I2
I3
I1
tRp1043
sg74
g1021
sasstbsbag2
(g3
g4
NtRp1044
(dp1045
g7
g8
sg9
g10
sg11
g2
(g12
g4
NtRp1046
((lp1047
g30
ag15
(g16
(dp1048
g18
g19
(g20
(I0
tS'b'
tRp1049
(I1
(L2L
tg23
I00
(lp1050
S'5318742'
p1051
aS'5418714'
p1052
atbsg29
NstRp1053
a(lp1054
g19
(g20
(I0
tS'b'
tRp1055
(I1
(L1L
L2L
tg40
I00
S'\x00\x00\x00\x00\x00\x00\xf0?\x00\x00\x00\x00\x00\x00\xf0?'
tbag19
(g20
(I0
tS'b'
tRp1056
(I1
(L2L
L2L
tg23
I00
(lp1057
V>> 13 errors in 150 files
p1058
aV>> 13 errors in 150 files
p1059
aS'AVQFDr4YePvB1HupEiO1'
p1060
aS'AVQFHq9cePvB1HupEiPK'
p1061
atbag19
(g20
(I0
tS'b'
tRp1062
(I1
(L1L
L2L
tg50
I00
S'\x9a\n\x00\x00\x00\x00\x00\x00\x9a\n\x00\x00\x00\x00\x00\x00'
tba(lp1063
g15
(g16
(dp1064
g18
g19
(g20
(I0
tS'b'
tRp1065
(I1
(L1L
tg23
I00
(lp1066
g25
atbsg29
NstRp1067
ag15
(g16
(dp1068
g18
g19
(g20
(I0
tS'b'
tRp1069
(I1
(L2L
tg23
I00
(lp1070
g26
ag28
atbsg29
NstRp1071
ag15
(g16
(dp1072
g18
g19
(g20
(I0
tS'b'
tRp1073
(I1
(L1L
tg23
I00
(lp1074
g27
atbsg29
NstRp1075
a(dp1076
g65
(dp1077
g67
g1047
sg68
(lp1078
(dp1079
g71
g72
(I0
I1
I1
tRp1080
sg74
g1055
sa(dp1081
g71
g72
(I1
I5
I2
tRp1082
sg74
g1056
sa(dp1083
g71
g72
(I2
I3
I1
tRp1084
sg74
g1062
sasstbsbag2
(g3
g4
NtRp1085
(dp1086
g7
g8
sg9
g10
sg11
g2
(g12
g4
NtRp1087
((lp1088
g30
ag15
(g16
(dp1089
g18
g19
(g20
(I0
tS'b'
tRp1090
(I1
(L2L
tg23
I00
(lp1091
S'18584'
p1092
aS'183681'
p1093
atbsg29
NstRp1094
a(lp1095
g19
(g20
(I0
tS'b'
tRp1096
(I1
(L1L
L2L
tg40
I00
S'\x00\x00\x00\x00\x00\x00\xf0?\x00\x00\x00\x00\x00\x00\xf0?'
tbag19
(g20
(I0
tS'b'
tRp1097
(I1
(L2L
L2L
tg23
I00
(lp1098
VDownloaded: http://mydtbld0051.hpeswlab.net:8081/nexus/content/groups/mqm-public/org/apache/maven/doxia/doxia-sink-api/1.1/doxia-sink-api-1.1.pom (2 KB at 24.0 KB/sec)
p1099
aVDownloaded: http://mydtbld0051.hpeswlab.net:8081/nexus/content/groups/mqm-public/xom/xom/1.1/xom-1.1.pom (2 KB at 124.5 KB/sec)
p1100
aS'AVQD9fmvePvB1HupEiKf'
p1101
aS'AVQD9fmvePvB1HupEiKf'
p1102
atbag19
(g20
(I0
tS'b'
tRp1103
(I1
(L1L
L2L
tg50
I00
S'!\x0b\x00\x00\x00\x00\x00\x00!\x0b\x00\x00\x00\x00\x00\x00'
tba(lp1104
g15
(g16
(dp1105
g18
g19
(g20
(I0
tS'b'
tRp1106
(I1
(L1L
tg23
I00
(lp1107
g25
atbsg29
NstRp1108
ag15
(g16
(dp1109
g18
g19
(g20
(I0
tS'b'
tRp1110
(I1
(L2L
tg23
I00
(lp1111
g26
ag28
atbsg29
NstRp1112
ag15
(g16
(dp1113
g18
g19
(g20
(I0
tS'b'
tRp1114
(I1
(L1L
tg23
I00
(lp1115
g27
atbsg29
NstRp1116
a(dp1117
g65
(dp1118
g67
g1088
sg68
(lp1119
(dp1120
g71
g72
(I0
I1
I1
tRp1121
sg74
g1096
sa(dp1122
g71
g72
(I1
I5
I2
tRp1123
sg74
g1097
sa(dp1124
g71
g72
(I2
I3
I1
tRp1125
sg74
g1103
sasstbsbag2
(g3
g4
NtRp1126
(dp1127
g7
g8
sg9
g10
sg11
g2
(g12
g4
NtRp1128
((lp1129
g30
ag15
(g16
(dp1130
g18
g19
(g20
(I0
tS'b'
tRp1131
(I1
(L2L
tg23
I00
(lp1132
S'5318965'
p1133
aS'5418937'
p1134
atbsg29
NstRp1135
a(lp1136
g19
(g20
(I0
tS'b'
tRp1137
(I1
(L1L
L2L
tg40
I00
S'\x00\x00\x00\x00\x00\x00\xf0?\x00\x00\x00\x00\x00\x00\xf0?'
tbag19
(g20
(I0
tS'b'
tRp1138
(I1
(L2L
L2L
tg23
I00
(lp1139
V... 11 more
p1140
aV... 11 more
p1141
aS'AVQFDr4YePvB1HupEiO1'
p1142
aS'AVQFHq9cePvB1HupEiPK'
p1143
atbag19
(g20
(I0
tS'b'
tRp1144
(I1
(L1L
L2L
tg50
I00
S'^\x0b\x00\x00\x00\x00\x00\x00^\x0b\x00\x00\x00\x00\x00\x00'
tba(lp1145
g15
(g16
(dp1146
g18
g19
(g20
(I0
tS'b'
tRp1147
(I1
(L1L
tg23
I00
(lp1148
g25
atbsg29
NstRp1149
ag15
(g16
(dp1150
g18
g19
(g20
(I0
tS'b'
tRp1151
(I1
(L2L
tg23
I00
(lp1152
g26
ag28
atbsg29
NstRp1153
ag15
(g16
(dp1154
g18
g19
(g20
(I0
tS'b'
tRp1155
(I1
(L1L
tg23
I00
(lp1156
g27
atbsg29
NstRp1157
a(dp1158
g65
(dp1159
g67
g1129
sg68
(lp1160
(dp1161
g71
g72
(I0
I1
I1
tRp1162
sg74
g1137
sa(dp1163
g71
g72
(I1
I5
I2
tRp1164
sg74
g1138
sa(dp1165
g71
g72
(I2
I3
I1
tRp1166
sg74
g1144
sasstbsbag2
(g3
g4
NtRp1167
(dp1168
g7
g8
sg9
g10
sg11
g2
(g12
g4
NtRp1169
((lp1170
g30
ag15
(g16
(dp1171
g18
g19
(g20
(I0
tS'b'
tRp1172
(I1
(L3L
tg23
I00
(lp1173
S'184367'
p1174
aS'5318983'
p1175
aS'5518954'
p1176
atbsg29
NstRp1177
a(lp1178
g19
(g20
(I0
tS'b'
tRp1179
(I1
(L1L
L3L
tg40
I00
S'\x00\x00\x00\x00\x00\x00\xf0?\x00\x00\x00\x00\x00\x00\xf0?\x00\x00\x00\x00\x00\x00\xf0?'
tbag19
(g20
(I0
tS'b'
tRp1180
(I1
(L2L
L3L
tg23
I00
(lp1181
V[ERROR] After correcting the problems, you can resume the build with the command
p1182
aV[ERROR] After correcting the problems, you can resume the build with the command
p1183
aV[ERROR] After correcting the problems, you can resume the build with the command
p1184
aS'AVQD9fmvePvB1HupEiKf'
p1185
aS'AVQFDr4YePvB1HupEiO1'
p1186
aS'AVQFJXM4ePvB1HupEiPS'
p1187
atbag19
(g20
(I0
tS'b'
tRp1188
(I1
(L1L
L3L
tg50
I00
S'\xa6\x0b\x00\x00\x00\x00\x00\x00\xa6\x0b\x00\x00\x00\x00\x00\x00\xa6\x0b\x00\x00\x00\x00\x00\x00'
tba(lp1189
g15
(g16
(dp1190
g18
g19
(g20
(I0
tS'b'
tRp1191
(I1
(L1L
tg23
I00
(lp1192
g25
atbsg29
NstRp1193
ag15
(g16
(dp1194
g18
g19
(g20
(I0
tS'b'
tRp1195
(I1
(L2L
tg23
I00
(lp1196
g26
ag28
atbsg29
NstRp1197
ag15
(g16
(dp1198
g18
g19
(g20
(I0
tS'b'
tRp1199
(I1
(L1L
tg23
I00
(lp1200
g27
atbsg29
NstRp1201
a(dp1202
g65
(dp1203
g67
g1170
sg68
(lp1204
(dp1205
g71
g72
(I0
I1
I1
tRp1206
sg74
g1179
sa(dp1207
g71
g72
(I1
I5
I2
tRp1208
sg74
g1180
sa(dp1209
g71
g72
(I2
I3
I1
tRp1210
sg74
g1188
sasstbsbag2
(g3
g4
NtRp1211
(dp1212
g7
g8
sg9
g10
sg11
g2
(g12
g4
NtRp1213
((lp1214
g30
ag15
(g16
(dp1215
g18
g19
(g20
(I0
tS'b'
tRp1216
(I1
(L10L
tg23
I00
(lp1217
S'184245'
p1218
aS'184276'
p1219
aS'184294'
p1220
aS'184303'
p1221
aS'5318906'
p1222
aS'5318926'
p1223
aS'5418878'
p1224
aS'5418898'
p1225
aS'5518877'
p1226
aS'5518897'
p1227
atbsg29
NstRp1228
a(lp1229
g19
(g20
(I0
tS'b'
tRp1230
(I1
(L1L
L10L
tg40
I00
S'\x00\x00\x00\x00\x00\x00\xf0?\x00\x00\x00\x00\x00\x00\xf0?\x00\x00\x00\x00\x00\x00\xf0?\x00\x00\x00\x00\x00\x00\xf0?\x00\x00\x00\x00\x00\x00\xf0?\x00\x00\x00\x00\x00\x00\xf0?\x00\x00\x00\x00\x00\x00\xf0?\x00\x00\x00\x00\x00\x00\xf0?\x00\x00\x00\x00\x00\x00\xf0?\x00\x00\x00\x00\x00\x00\xf0?'
tbag19
(g20
(I0
tS'b'
tRp1231
(I1
(L2L
L10L
tg23
I00
(lp1232
V[INFO] test-box-service .................................. SKIPPED
p1233
aV[INFO] mqm-storage-impl .................................. SKIPPED
p1234
aV[INFO] saas-portal-mock .................................. SKIPPED
p1235
aV[INFO] selenium-wrapper .................................. SKIPPED
p1236
aV[INFO] mqm-install-impl .................................. SKIPPED
p1237
aV[INFO] mqm-distribution .................................. SKIPPED
p1238
aV[INFO] mqm-install-impl .................................. SKIPPED
p1239
aV[INFO] mqm-distribution .................................. SKIPPED
p1240
aV[INFO] mqm-install-impl .................................. SKIPPED
p1241
aV[INFO] mqm-distribution .................................. SKIPPED
p1242
aS'AVQD9fmvePvB1HupEiKf'
p1243
aS'AVQD9fmvePvB1HupEiKf'
p1244
aS'AVQD9fmvePvB1HupEiKf'
p1245
aS'AVQD9fmvePvB1HupEiKf'
p1246
aS'AVQFDr4YePvB1HupEiO1'
p1247
aS'AVQFDr4YePvB1HupEiO1'
p1248
aS'AVQFHq9cePvB1HupEiPK'
p1249
aS'AVQFHq9cePvB1HupEiPK'
p1250
aS'AVQFJXM4ePvB1HupEiPS'
p1251
aS'AVQFJXM4ePvB1HupEiPS'
p1252
atbag19
(g20
(I0
tS'b'
tRp1253
(I1
(L1L
L10L
tg50
I00
S'\xd3\x0b\x00\x00\x00\x00\x00\x00\xd3\x0b\x00\x00\x00\x00\x00\x00\xd3\x0b\x00\x00\x00\x00\x00\x00\xd3\x0b\x00\x00\x00\x00\x00\x00\xd3\x0b\x00\x00\x00\x00\x00\x00\xd3\x0b\x00\x00\x00\x00\x00\x00\xd3\x0b\x00\x00\x00\x00\x00\x00\xd3\x0b\x00\x00\x00\x00\x00\x00\xd3\x0b\x00\x00\x00\x00\x00\x00\xd3\x0b\x00\x00\x00\x00\x00\x00'
tba(lp1254
g15
(g16
(dp1255
g18
g19
(g20
(I0
tS'b'
tRp1256
(I1
(L1L
tg23
I00
(lp1257
g25
atbsg29
NstRp1258
ag15
(g16
(dp1259
g18
g19
(g20
(I0
tS'b'
tRp1260
(I1
(L2L
tg23
I00
(lp1261
g26
ag28
atbsg29
NstRp1262
ag15
(g16
(dp1263
g18
g19
(g20
(I0
tS'b'
tRp1264
(I1
(L1L
tg23
I00
(lp1265
g27
atbsg29
NstRp1266
a(dp1267
g65
(dp1268
g67
g1214
sg68
(lp1269
(dp1270
g71
g72
(I0
I1
I1
tRp1271
sg74
g1230
sa(dp1272
g71
g72
(I1
I5
I2
tRp1273
sg74
g1231
sa(dp1274
g71
g72
(I2
I3
I1
tRp1275
sg74
g1253
sasstbsbag2
(g3
g4
NtRp1276
(dp1277
g7
g8
sg9
g10
sg11
g2
(g12
g4
NtRp1278
((lp1279
g30
ag15
(g16
(dp1280
g18
g19
(g20
(I0
tS'b'
tRp1281
(I1
(L2L
tg23
I00
(lp1282
S'181374'
p1283
aS'181377'
p1284
atbsg29
NstRp1285
a(lp1286
g19
(g20
(I0
tS'b'
tRp1287
(I1
(L1L
L2L
tg40
I00
S'\x00\x00\x00\x00\x00\x00\xf0?\x00\x00\x00\x00\x00\x00\xf0?'
tbag19
(g20
(I0
tS'b'
tRp1288
(I1
(L2L
L2L
tg23
I00
(lp1289
VDownloaded: http://mydtbld0051.hpeswlab.net:8081/nexus/content/groups/mqm-public/org/apache/maven/doxia/doxia-module-apt/1.0/doxia-module-apt-1.0.pom (3 KB at 157.2 KB/sec)
p1290
aVDownloaded: http://mydtbld0051.hpeswlab.net:8081/nexus/content/groups/mqm-public/org/apache/maven/doxia/doxia-modules/1.0/doxia-modules-1.0.pom (3 KB at 137.5 KB/sec)
p1291
aS'AVQD9fmvePvB1HupEiKf'
p1292
aS'AVQD9fmvePvB1HupEiKf'
p1293
atbag19
(g20
(I0
tS'b'
tRp1294
(I1
(L1L
L2L
tg50
I00
S'\xd8\x0b\x00\x00\x00\x00\x00\x00\xd8\x0b\x00\x00\x00\x00\x00\x00'
tba(lp1295
g15
(g16
(dp1296
g18
g19
(g20
(I0
tS'b'
tRp1297
(I1
(L1L
tg23
I00
(lp1298
g25
atbsg29
NstRp1299
ag15
(g16
(dp1300
g18
g19
(g20
(I0
tS'b'
tRp1301
(I1
(L2L
tg23
I00
(lp1302
g26
ag28
atbsg29
NstRp1303
ag15
(g16
(dp1304
g18
g19
(g20
(I0
tS'b'
tRp1305
(I1
(L1L
tg23
I00
(lp1306
g27
atbsg29
NstRp1307
a(dp1308
g65
(dp1309
g67
g1279
sg68
(lp1310
(dp1311
g71
g72
(I0
I1
I1
tRp1312
sg74
g1287
sa(dp1313
g71
g72
(I1
I5
I2
tRp1314
sg74
g1288
sa(dp1315
g71
g72
(I2
I3
I1
tRp1316
sg74
g1294
sasstbsbag2
(g3
g4
NtRp1317
(dp1318
g7
g8
sg9
g10
sg11
g2
(g12
g4
NtRp1319
((lp1320
g30
ag15
(g16
(dp1321
g18
g19
(g20
(I0
tS'b'
tRp1322
(I1
(L2L
tg23
I00
(lp1323
S'5318971'
p1324
aS'5518942'
p1325
atbsg29
NstRp1326
a(lp1327
g19
(g20
(I0
tS'b'
tRp1328
(I1
(L1L
L2L
tg40
I00
S'\x00\x00\x00\x00\x00\x00\xf0?\x00\x00\x00\x00\x00\x00\xf0?'
tbag19
(g20
(I0
tS'b'
tRp1329
(I1
(L2L
L2L
tg23
I00
(lp1330
VCaused by: org.apache.commons.exec.ExecuteException: Process exited with an error: 6 (Exit value: 6)
p1331
aVCaused by: org.apache.commons.exec.ExecuteException: Process exited with an error: 6 (Exit value: 6)
p1332
aS'AVQFDr4YePvB1HupEiO1'
p1333
aS'AVQFJXM4ePvB1HupEiPS'
p1334
atbag19
(g20
(I0
tS'b'
tRp1335
(I1
(L1L
L2L
tg50
I00
S'\x08\x0c\x00\x00\x00\x00\x00\x00\x08\x0c\x00\x00\x00\x00\x00\x00'
tba(lp1336
g15
(g16
(dp1337
g18
g19
(g20
(I0
tS'b'
tRp1338
(I1
(L1L
tg23
I00
(lp1339
g25
atbsg29
NstRp1340
ag15
(g16
(dp1341
g18
g19
(g20
(I0
tS'b'
tRp1342
(I1
(L2L
tg23
I00
(lp1343
g26
ag28
atbsg29
NstRp1344
ag15
(g16
(dp1345
g18
g19
(g20
(I0
tS'b'
tRp1346
(I1
(L1L
tg23
I00
(lp1347
g27
atbsg29
NstRp1348
a(dp1349
g65
(dp1350
g67
g1320
sg68
(lp1351
(dp1352
g71
g72
(I0
I1
I1
tRp1353
sg74
g1328
sa(dp1354
g71
g72
(I1
I5
I2
tRp1355
sg74
g1329
sa(dp1356
g71
g72
(I2
I3
I1
tRp1357
sg74
g1335
sasstbsbag2
(g3
g4
NtRp1358
(dp1359
g7
g8
sg9
g10
sg11
g2
(g12
g4
NtRp1360
((lp1361
g30
ag15
(g16
(dp1362
g18
g19
(g20
(I0
tS'b'
tRp1363
(I1
(L6L
tg23
I00
(lp1364
S'184174'
p1365
aS'184184'
p1366
aS'184203'
p1367
aS'184230'
p1368
aS'184236'
p1369
aS'184310'
p1370
atbsg29
NstRp1371
a(lp1372
g19
(g20
(I0
tS'b'
tRp1373
(I1
(L1L
L6L
tg40
I00
S'\x00\x00\x00\x00\x00\x00\xf0?\x00\x00\x00\x00\x00\x00\xf0?\x00\x00\x00\x00\x00\x00\xf0?\x00\x00\x00\x00\x00\x00\xf0?\x00\x00\x00\x00\x00\x00\xf0?\x00\x00\x00\x00\x00\x00\xf0?'
tbag19
(g20
(I0
tS'b'
tRp1374
(I1
(L2L
L6L
tg23
I00
(lp1375
V[INFO] mqm-ps-entities-api ............................... SKIPPED
p1376
aV[INFO] mqm-bl-platform-api ............................... SKIPPED
p1377
aV[INFO] mqm-rest-infra-impl ............................... SKIPPED
p1378
aV[INFO] mqm-trend-sync-impl ............................... SKIPPED
p1379
aV[INFO] mqm-sbs-manager-api ............................... SKIPPED
p1380
aV[INFO] ui-automation-tests ............................... SKIPPED
p1381
aS'AVQD9fmvePvB1HupEiKf'
p1382
aS'AVQD9fmvePvB1HupEiKf'
p1383
aS'AVQD9fmvePvB1HupEiKf'
p1384
aS'AVQD9fmvePvB1HupEiKf'
p1385
aS'AVQD9fmvePvB1HupEiKf'
p1386
aS'AVQD9fmvePvB1HupEiKf'
p1387
atbag19
(g20
(I0
tS'b'
tRp1388
(I1
(L1L
L6L
tg50
I00
S'\x1c\x0c\x00\x00\x00\x00\x00\x00\x1c\x0c\x00\x00\x00\x00\x00\x00\x1c\x0c\x00\x00\x00\x00\x00\x00\x1c\x0c\x00\x00\x00\x00\x00\x00\x1c\x0c\x00\x00\x00\x00\x00\x00\x1c\x0c\x00\x00\x00\x00\x00\x00'
tba(lp1389
g15
(g16
(dp1390
g18
g19
(g20
(I0
tS'b'
tRp1391
(I1
(L1L
tg23
I00
(lp1392
g25
atbsg29
NstRp1393
ag15
(g16
(dp1394
g18
g19
(g20
(I0
tS'b'
tRp1395
(I1
(L2L
tg23
I00
(lp1396
g26
ag28
atbsg29
NstRp1397
ag15
(g16
(dp1398
g18
g19
(g20
(I0
tS'b'
tRp1399
(I1
(L1L
tg23
I00
(lp1400
g27
atbsg29
NstRp1401
a(dp1402
g65
(dp1403
g67
g1361
sg68
(lp1404
(dp1405
g71
g72
(I0
I1
I1
tRp1406
sg74
g1373
sa(dp1407
g71
g72
(I1
I5
I2
tRp1408
sg74
g1374
sa(dp1409
g71
g72
(I2
I3
I1
tRp1410
sg74
g1388
sasstbsbag2
(g3
g4
NtRp1411
(dp1412
g7
g8
sg9
g10
sg11
g2
(g12
g4
NtRp1413
((lp1414
g30
ag15
(g16
(dp1415
g18
g19
(g20
(I0
tS'b'
tRp1416
(I1
(L2L
tg23
I00
(lp1417
S'5418940'
p1418
aS'5518934'
p1419
atbsg29
NstRp1420
a(lp1421
g19
(g20
(I0
tS'b'
tRp1422
(I1
(L1L
L2L
tg40
I00
S'\x00\x00\x00\x00\x00\x00\xf0?\x00\x00\x00\x00\x00\x00\xf0?'
tbag19
(g20
(I0
tS'b'
tRp1423
(I1
(L2L
L2L
tg23
I00
(lp1424
Vat org.apache.maven.plugin.DefaultBuildPluginManager.executeMojo(DefaultBuildPluginManager.java:101)
p1425
aVat org.apache.maven.plugin.DefaultBuildPluginManager.executeMojo(DefaultBuildPluginManager.java:101)
p1426
aS'AVQFHq9cePvB1HupEiPK'
p1427
aS'AVQFJXM4ePvB1HupEiPS'
p1428
atbag19
(g20
(I0
tS'b'
tRp1429
(I1
(L1L
L2L
tg50
I00
S'j\x0c\x00\x00\x00\x00\x00\x00j\x0c\x00\x00\x00\x00\x00\x00'
tba(lp1430
g15
(g16
(dp1431
g18
g19
(g20
(I0
tS'b'
tRp1432
(I1
(L1L
tg23
I00
(lp1433
g25
atbsg29
NstRp1434
ag15
(g16
(dp1435
g18
g19
(g20
(I0
tS'b'
tRp1436
(I1
(L2L
tg23
I00
(lp1437
g26
ag28
atbsg29
NstRp1438
ag15
(g16
(dp1439
g18
g19
(g20
(I0
tS'b'
tRp1440
(I1
(L1L
tg23
I00
(lp1441
g27
atbsg29
NstRp1442
a(dp1443
g65
(dp1444
g67
g1414
sg68
(lp1445
(dp1446
g71
g72
(I0
I1
I1
tRp1447
sg74
g1422
sa(dp1448
g71
g72
(I1
I5
I2
tRp1449
sg74
g1423
sa(dp1450
g71
g72
(I2
I3
I1
tRp1451
sg74
g1429
sasstbsbag2
(g3
g4
NtRp1452
(dp1453
g7
g8
sg9
g10
sg11
g2
(g12
g4
NtRp1454
((lp1455
g30
ag15
(g16
(dp1456
g18
g19
(g20
(I0
tS'b'
tRp1457
(I1
(L2L
tg23
I00
(lp1458
S'5318733'
p1459
aS'5418705'
p1460
atbsg29
NstRp1461
a(lp1462
g19
(g20
(I0
tS'b'
tRp1463
(I1
(L1L
L2L
tg40
I00
S'\x00\x00\x00\x00\x00\x00\xf0?\x00\x00\x00\x00\x00\x00\xf0?'
tbag19
(g20
(I0
tS'b'
tRp1464
(I1
(L2L
L2L
tg23
I00
(lp1465
V30 | var element = linkFn(scope);
p1466
aV30 | var element = linkFn(scope);
p1467
aS'AVQFDr4YePvB1HupEiO1'
p1468
aS'AVQFHq9cePvB1HupEiPK'
p1469
atbag19
(g20
(I0
tS'b'
tRp1470
(I1
(L1L
L2L
tg50
I00
S'\xa2\x0c\x00\x00\x00\x00\x00\x00\xa2\x0c\x00\x00\x00\x00\x00\x00'
tba(lp1471
g15
(g16
(dp1472
g18
g19
(g20
(I0
tS'b'
tRp1473
(I1
(L1L
tg23
I00
(lp1474
g25
atbsg29
NstRp1475
ag15
(g16
(dp1476
g18
g19
(g20
(I0
tS'b'
tRp1477
(I1
(L2L
tg23
I00
(lp1478
g26
ag28
atbsg29
NstRp1479
ag15
(g16
(dp1480
g18
g19
(g20
(I0
tS'b'
tRp1481
(I1
(L1L
tg23
I00
(lp1482
g27
atbsg29
NstRp1483
a(dp1484
g65
(dp1485
g67
g1455
sg68
(lp1486
(dp1487
g71
g72
(I0
I1
I1
tRp1488
sg74
g1463
sa(dp1489
g71
g72
(I1
I5
I2
tRp1490
sg74
g1464
sa(dp1491
g71
g72
(I2
I3
I1
tRp1492
sg74
g1470
sasstbsbag2
(g3
g4
NtRp1493
(dp1494
g7
g8
sg9
g10
sg11
g2
(g12
g4
NtRp1495
((lp1496
g30
ag15
(g16
(dp1497
g18
g19
(g20
(I0
tS'b'
tRp1498
(I1
(L6L
tg23
I00
(lp1499
S'184167'
p1500
aS'184186'
p1501
aS'184216'
p1502
aS'184240'
p1503
aS'184252'
p1504
aS'184277'
p1505
atbsg29
NstRp1506
a(lp1507
g19
(g20
(I0
tS'b'
tRp1508
(I1
(L1L
L6L
tg40
I00
S'\x00\x00\x00\x00\x00\x00\xf0?\x00\x00\x00\x00\x00\x00\xf0?\x00\x00\x00\x00\x00\x00\xf0?\x00\x00\x00\x00\x00\x00\xf0?\x00\x00\x00\x00\x00\x00\xf0?\x00\x00\x00\x00\x00\x00\xf0?'
tbag19
(g20
(I0
tS'b'
tRp1509
(I1
(L2L
L6L
tg23
I00
(lp1510
V[INFO] mqm-dal-db-infra-api .............................. SKIPPED
p1511
aV[INFO] mqm-app-entities-api .............................. SKIPPED
p1512
aV[INFO] mqm-ps-entities-impl .............................. SKIPPED
p1513
aV[INFO] test-box-api-commons .............................. SKIPPED
p1514
aV[INFO] mqm-bl-platform-impl .............................. SKIPPED
p1515
aV[INFO] mqm-sbs-manager-impl .............................. SKIPPED
p1516
aS'AVQD9fmvePvB1HupEiKf'
p1517
aS'AVQD9fmvePvB1HupEiKf'
p1518
aS'AVQD9fmvePvB1HupEiKf'
p1519
aS'AVQD9fmvePvB1HupEiKf'
p1520
aS'AVQD9fmvePvB1HupEiKf'
p1521
aS'AVQD9fmvePvB1HupEiKf'
p1522
atbag19
(g20
(I0
tS'b'
tRp1523
(I1
(L1L
L6L
tg50
I00
S'\xbd\x0c\x00\x00\x00\x00\x00\x00\xbd\x0c\x00\x00\x00\x00\x00\x00\xbd\x0c\x00\x00\x00\x00\x00\x00\xbd\x0c\x00\x00\x00\x00\x00\x00\xbd\x0c\x00\x00\x00\x00\x00\x00\xbd\x0c\x00\x00\x00\x00\x00\x00'
tba(lp1524
g15
(g16
(dp1525
g18
g19
(g20
(I0
tS'b'
tRp1526
(I1
(L1L
tg23
I00
(lp1527
g25
atbsg29
NstRp1528
ag15
(g16
(dp1529
g18
g19
(g20
(I0
tS'b'
tRp1530
(I1
(L2L
tg23
I00
(lp1531
g26
ag28
atbsg29
NstRp1532
ag15
(g16
(dp1533
g18
g19
(g20
(I0
tS'b'
tRp1534
(I1
(L1L
tg23
I00
(lp1535
g27
atbsg29
NstRp1536
a(dp1537
g65
(dp1538
g67
g1496
sg68
(lp1539
(dp1540
g71
g72
(I0
I1
I1
tRp1541
sg74
g1508
sa(dp1542
g71
g72
(I1
I5
I2
tRp1543
sg74
g1509
sa(dp1544
g71
g72
(I2
I3
I1
tRp1545
sg74
g1523
sasstbsbag2
(g3
g4
NtRp1546
(dp1547
g7
g8
sg9
g10
sg11
g2
(g12
g4
NtRp1548
((lp1549
g30
ag15
(g16
(dp1550
g18
g19
(g20
(I0
tS'b'
tRp1551
(I1
(L2L
tg23
I00
(lp1552
S'5418931'
p1553
aS'5518930'
p1554
atbsg29
NstRp1555
a(lp1556
g19
(g20
(I0
tS'b'
tRp1557
(I1
(L1L
L2L
tg40
I00
S'\x00\x00\x00\x00\x00\x00\xf0?\x00\x00\x00\x00\x00\x00\xf0?'
tbag19
(g20
(I0
tS'b'
tRp1558
(I1
(L2L
L2L
tg23
I00
(lp1559
Vat org.twdata.maven.mojoexecutor.MojoExecutor.executeMojo(MojoExecutor.java:75)
p1560
aVat org.twdata.maven.mojoexecutor.MojoExecutor.executeMojo(MojoExecutor.java:75)
p1561
aS'AVQFHq9cePvB1HupEiPK'
p1562
aS'AVQFJXM4ePvB1HupEiPS'
p1563
atbag19
(g20
(I0
tS'b'
tRp1564
(I1
(L1L
L2L
tg50
I00
S'\x7f\r\x00\x00\x00\x00\x00\x00\x7f\r\x00\x00\x00\x00\x00\x00'
tba(lp1565
g15
(g16
(dp1566
g18
g19
(g20
(I0
tS'b'
tRp1567
(I1
(L1L
tg23
I00
(lp1568
g25
atbsg29
NstRp1569
ag15
(g16
(dp1570
g18
g19
(g20
(I0
tS'b'
tRp1571
(I1
(L2L
tg23
I00
(lp1572
g26
ag28
atbsg29
NstRp1573
ag15
(g16
(dp1574
g18
g19
(g20
(I0
tS'b'
tRp1575
(I1
(L1L
tg23
I00
(lp1576
g27
atbsg29
NstRp1577
a(dp1578
g65
(dp1579
g67
g1549
sg68
(lp1580
(dp1581
g71
g72
(I0
I1
I1
tRp1582
sg74
g1557
sa(dp1583
g71
g72
(I1
I5
I2
tRp1584
sg74
g1558
sa(dp1585
g71
g72
(I2
I3
I1
tRp1586
sg74
g1564
sasstbsbag2
(g3
g4
NtRp1587
(dp1588
g7
g8
sg9
g10
sg11
g2
(g12
g4
NtRp1589
((lp1590
g30
ag15
(g16
(dp1591
g18
g19
(g20
(I0
tS'b'
tRp1592
(I1
(L2L
tg23
I00
(lp1593
S'5418699'
p1594
aS'5518698'
p1595
atbsg29
NstRp1596
a(lp1597
g19
(g20
(I0
tS'b'
tRp1598
(I1
(L1L
L2L
tg40
I00
S'\x00\x00\x00\x00\x00\x00\xf0?\x00\x00\x00\x00\x00\x00\xf0?'
tbag19
(g20
(I0
tS'b'
tRp1599
(I1
(L2L
L2L
tg23
I00
(lp1600
V25 | var urlParts = this.$window.document.URL.split('?p');
p1601
aV25 | var urlParts = this.$window.document.URL.split('?p');
p1602
aS'AVQFHq9cePvB1HupEiPK'
p1603
aS'AVQFJXM4ePvB1HupEiPS'
p1604
atbag19
(g20
(I0
tS'b'
tRp1605
(I1
(L1L
L2L
tg50
I00
S'\xa2\r\x00\x00\x00\x00\x00\x00\xa2\r\x00\x00\x00\x00\x00\x00'
tba(lp1606
g15
(g16
(dp1607
g18
g19
(g20
(I0
tS'b'
tRp1608
(I1
(L1L
tg23
I00
(lp1609
g25
atbsg29
NstRp1610
ag15
(g16
(dp1611
g18
g19
(g20
(I0
tS'b'
tRp1612
(I1
(L2L
tg23
I00
(lp1613
g26
ag28
atbsg29
NstRp1614
ag15
(g16
(dp1615
g18
g19
(g20
(I0
tS'b'
tRp1616
(I1
(L1L
tg23
I00
(lp1617
g27
atbsg29
NstRp1618
a(dp1619
g65
(dp1620
g67
g1590
sg68
(lp1621
(dp1622
g71
g72
(I0
I1
I1
tRp1623
sg74
g1598
sa(dp1624
g71
g72
(I1
I5
I2
tRp1625
sg74
g1599
sa(dp1626
g71
g72
(I2
I3
I1
tRp1627
sg74
g1605
sasstbsbag2
(g3
g4
NtRp1628
(dp1629
g7
g8
sg9
g10
sg11
g2
(g12
g4
NtRp1630
((lp1631
g30
ag15
(g16
(dp1632
g18
g19
(g20
(I0
tS'b'
tRp1633
(I1
(L2L
tg23
I00
(lp1634
S'5318975'
p1635
aS'5418947'
p1636
atbsg29
NstRp1637
a(lp1638
g19
(g20
(I0
tS'b'
tRp1639
(I1
(L1L
L2L
tg40
I00
S'\x00\x00\x00\x00\x00\x00\xf0?\x00\x00\x00\x00\x00\x00\xf0?'
tbag19
(g20
(I0
tS'b'
tRp1640
(I1
(L2L
L2L
tg23
I00
(lp1641
Vat org.codehaus.mojo.exec.ExecMojo.execute(ExecMojo.java:352)
p1642
aVat org.codehaus.mojo.exec.ExecMojo.execute(ExecMojo.java:352)
p1643
aS'AVQFDr4YePvB1HupEiO1'
p1644
aS'AVQFHq9cePvB1HupEiPK'
p1645
atbag19
(g20
(I0
tS'b'
tRp1646
(I1
(L1L
L2L
tg50
I00
S'\xd2\r\x00\x00\x00\x00\x00\x00\xd2\r\x00\x00\x00\x00\x00\x00'
tba(lp1647
g15
(g16
(dp1648
g18
g19
(g20
(I0
tS'b'
tRp1649
(I1
(L1L
tg23
I00
(lp1650
g25
atbsg29
NstRp1651
ag15
(g16
(dp1652
g18
g19
(g20
(I0
tS'b'
tRp1653
(I1
(L2L
tg23
I00
(lp1654
g26
ag28
atbsg29
NstRp1655
ag15
(g16
(dp1656
g18
g19
(g20
(I0
tS'b'
tRp1657
(I1
(L1L
tg23
I00
(lp1658
g27
atbsg29
NstRp1659
a(dp1660
g65
(dp1661
g67
g1631
sg68
(lp1662
(dp1663
g71
g72
(I0
I1
I1
tRp1664
sg74
g1639
sa(dp1665
g71
g72
(I1
I5
I2
tRp1666
sg74
g1640
sa(dp1667
g71
g72
(I2
I3
I1
tRp1668
sg74
g1646
sasstbsbag2
(g3
g4
NtRp1669
(dp1670
g7
g8
sg9
g10
sg11
g2
(g12
g4
NtRp1671
((lp1672
g30
ag15
(g16
(dp1673
g18
g19
(g20
(I0
tS'b'
tRp1674
(I1
(L2L
tg23
I00
(lp1675
S'5318980'
p1676
aS'5518951'
p1677
atbsg29
NstRp1678
a(lp1679
g19
(g20
(I0
tS'b'
tRp1680
(I1
(L1L
L2L
tg40
I00
S'\x00\x00\x00\x00\x00\x00\xf0?\x00\x00\x00\x00\x00\x00\xf0?'
tbag19
(g20
(I0
tS'b'
tRp1681
(I1
(L2L
L2L
tg23
I00
(lp1682
V[ERROR] For more information about the errors and possible solutions, please read the following articles:
p1683
aV[ERROR] For more information about the errors and possible solutions, please read the following articles:
p1684
aS'AVQFDr4YePvB1HupEiO1'
p1685
aS'AVQFJXM4ePvB1HupEiPS'
p1686
atbag19
(g20
(I0
tS'b'
tRp1687
(I1
(L1L
L2L
tg50
I00
S'\xd9\r\x00\x00\x00\x00\x00\x00\xd9\r\x00\x00\x00\x00\x00\x00'
tba(lp1688
g15
(g16
(dp1689
g18
g19
(g20
(I0
tS'b'
tRp1690
(I1
(L1L
tg23
I00
(lp1691
g25
atbsg29
NstRp1692
ag15
(g16
(dp1693
g18
g19
(g20
(I0
tS'b'
tRp1694
(I1
(L2L
tg23
I00
(lp1695
g26
ag28
atbsg29
NstRp1696
ag15
(g16
(dp1697
g18
g19
(g20
(I0
tS'b'
tRp1698
(I1
(L1L
tg23
I00
(lp1699
g27
atbsg29
NstRp1700
a(dp1701
g65
(dp1702
g67
g1672
sg68
(lp1703
(dp1704
g71
g72
(I0
I1
I1
tRp1705
sg74
g1680
sa(dp1706
g71
g72
(I1
I5
I2
tRp1707
sg74
g1681
sa(dp1708
g71
g72
(I2
I3
I1
tRp1709
sg74
g1687
sasstbsbag2
(g3
g4
NtRp1710
(dp1711
g7
g8
sg9
g10
sg11
g2
(g12
g4
NtRp1712
((lp1713
g30
ag15
(g16
(dp1714
g18
g19
(g20
(I0
tS'b'
tRp1715
(I1
(L2L
tg23
I00
(lp1716
S'5418697'
p1717
aS'5518696'
p1718
atbsg29
NstRp1719
a(lp1720
g19
(g20
(I0
tS'b'
tRp1721
(I1
(L1L
L2L
tg40
I00
S'\x00\x00\x00\x00\x00\x00\xf0?\x00\x00\x00\x00\x00\x00\xf0?'
tbag19
(g20
(I0
tS'b'
tRp1722
(I1
(L2L
L2L
tg23
I00
(lp1723
V16 | var newTab = this.$window.open();
p1724
aV16 | var newTab = this.$window.open();
p1725
aS'AVQFHq9cePvB1HupEiPK'
p1726
aS'AVQFJXM4ePvB1HupEiPS'
p1727
atbag19
(g20
(I0
tS'b'
tRp1728
(I1
(L1L
L2L
tg50
I00
S' \x0e\x00\x00\x00\x00\x00\x00 \x0e\x00\x00\x00\x00\x00\x00'
tba(lp1729
g15
(g16
(dp1730
g18
g19
(g20
(I0
tS'b'
tRp1731
(I1
(L1L
tg23
I00
(lp1732
g25
atbsg29
NstRp1733
ag15
(g16
(dp1734
g18
g19
(g20
(I0
tS'b'
tRp1735
(I1
(L2L
tg23
I00
(lp1736
g26
ag28
atbsg29
NstRp1737
ag15
(g16
(dp1738
g18
g19
(g20
(I0
tS'b'
tRp1739
(I1
(L1L
tg23
I00
(lp1740
g27
atbsg29
NstRp1741
a(dp1742
g65
(dp1743
g67
g1713
sg68
(lp1744
(dp1745
g71
g72
(I0
I1
I1
tRp1746
sg74
g1721
sa(dp1747
g71
g72
(I1
I5
I2
tRp1748
sg74
g1722
sa(dp1749
g71
g72
(I2
I3
I1
tRp1750
sg74
g1728
sasstbsbag2
(g3
g4
NtRp1751
(dp1752
g7
g8
sg9
g10
sg11
g2
(g12
g4
NtRp1753
((lp1754
g30
ag15
(g16
(dp1755
g18
g19
(g20
(I0
tS'b'
tRp1756
(I1
(L2L
tg23
I00
(lp1757
S'5318715'
p1758
aS'5518686'
p1759
atbsg29
NstRp1760
a(lp1761
g19
(g20
(I0
tS'b'
tRp1762
(I1
(L1L
L2L
tg40
I00
S'\x00\x00\x00\x00\x00\x00\xf0?\x00\x00\x00\x00\x00\x00\xf0?'
tbag19
(g20
(I0
tS'b'
tRp1763
(I1
(L2L
L2L
tg23
I00
(lp1764
V2 | var FullErrorReport = (function () {
p1765
aV2 | var FullErrorReport = (function () {
p1766
aS'AVQFDr4YePvB1HupEiO1'
p1767
aS'AVQFJXM4ePvB1HupEiPS'
p1768
atbag19
(g20
(I0
tS'b'
tRp1769
(I1
(L1L
L2L
tg50
I00
S'R\x0e\x00\x00\x00\x00\x00\x00R\x0e\x00\x00\x00\x00\x00\x00'
tba(lp1770
g15
(g16
(dp1771
g18
g19
(g20
(I0
tS'b'
tRp1772
(I1
(L1L
tg23
I00
(lp1773
g25
atbsg29
NstRp1774
ag15
(g16
(dp1775
g18
g19
(g20
(I0
tS'b'
tRp1776
(I1
(L2L
tg23
I00
(lp1777
g26
ag28
atbsg29
NstRp1778
ag15
(g16
(dp1779
g18
g19
(g20
(I0
tS'b'
tRp1780
(I1
(L1L
tg23
I00
(lp1781
g27
atbsg29
NstRp1782
a(dp1783
g65
(dp1784
g67
g1754
sg68
(lp1785
(dp1786
g71
g72
(I0
I1
I1
tRp1787
sg74
g1762
sa(dp1788
g71
g72
(I1
I5
I2
tRp1789
sg74
g1763
sa(dp1790
g71
g72
(I2
I3
I1
tRp1791
sg74
g1769
sasstbsbag2
(g3
g4
NtRp1792
(dp1793
g7
g8
sg9
g10
sg11
g2
(g12
g4
NtRp1794
((lp1795
g30
ag15
(g16
(dp1796
g18
g19
(g20
(I0
tS'b'
tRp1797
(I1
(L3L
tg23
I00
(lp1798
S'184182'
p1799
aS'184253'
p1800
aS'184272'
p1801
atbsg29
NstRp1802
a(lp1803
g19
(g20
(I0
tS'b'
tRp1804
(I1
(L1L
L3L
tg40
I00
S'\x00\x00\x00\x00\x00\x00\xf0?\x00\x00\x00\x00\x00\x00\xf0?\x00\x00\x00\x00\x00\x00\xf0?'
tbag19
(g20
(I0
tS'b'
tRp1805
(I1
(L2L
L3L
tg23
I00
(lp1806
V[INFO] mqm-dal-db-entity-platform-api .................... SKIPPED
p1807
aV[INFO] mqm-bl-platform-br-plugin-impl .................... SKIPPED
p1808
aV[INFO] mqm-distributed-messaging-impl .................... SKIPPED
p1809
aS'AVQD9fmvePvB1HupEiKf'
p1810
aS'AVQD9fmvePvB1HupEiKf'
p1811
aS'AVQD9fmvePvB1HupEiKf'
p1812
atbag19
(g20
(I0
tS'b'
tRp1813
(I1
(L1L
L3L
tg50
I00
S'9\x0f\x00\x00\x00\x00\x00\x009\x0f\x00\x00\x00\x00\x00\x009\x0f\x00\x00\x00\x00\x00\x00'
tba(lp1814
g15
(g16
(dp1815
g18
g19
(g20
(I0
tS'b'
tRp1816
(I1
(L1L
tg23
I00
(lp1817
g25
atbsg29
NstRp1818
ag15
(g16
(dp1819
g18
g19
(g20
(I0
tS'b'
tRp1820
(I1
(L2L
tg23
I00
(lp1821
g26
ag28
atbsg29
NstRp1822
ag15
(g16
(dp1823
g18
g19
(g20
(I0
tS'b'
tRp1824
(I1
(L1L
tg23
I00
(lp1825
g27
atbsg29
NstRp1826
a(dp1827
g65
(dp1828
g67
g1795
sg68
(lp1829
(dp1830
g71
g72
(I0
I1
I1
tRp1831
sg74
g1804
sa(dp1832
g71
g72
(I1
I5
I2
tRp1833
sg74
g1805
sa(dp1834
g71
g72
(I2
I3
I1
tRp1835
sg74
g1813
sasstbsbag2
(g3
g4
NtRp1836
(dp1837
g7
g8
sg9
g10
sg11
g2
(g12
g4
NtRp1838
((lp1839
g30
ag15
(g16
(dp1840
g18
g19
(g20
(I0
tS'b'
tRp1841
(I1
(L3L
tg23
I00
(lp1842
S'184340'
p1843
aS'5318951'
p1844
aS'5418923'
p1845
atbsg29
NstRp1846
a(lp1847
g19
(g20
(I0
tS'b'
tRp1848
(I1
(L1L
L3L
tg40
I00
S'\x00\x00\x00\x00\x00\x00\xf0?\x00\x00\x00\x00\x00\x00\xf0?\x00\x00\x00\x00\x00\x00\xf0?'
tbag19
(g20
(I0
tS'b'
tRp1849
(I1
(L2L
L3L
tg23
I00
(lp1850
Vat java.util.concurrent.Executors$RunnableAdapter.call(Executors.java:511)
p1851
aVat java.util.concurrent.Executors$RunnableAdapter.call(Executors.java:511)
p1852
aVat java.util.concurrent.Executors$RunnableAdapter.call(Executors.java:511)
p1853
aS'AVQD9fmvePvB1HupEiKf'
p1854
aS'AVQFDr4YePvB1HupEiO1'
p1855
aS'AVQFHq9cePvB1HupEiPK'
p1856
atbag19
(g20
(I0
tS'b'
tRp1857
(I1
(L1L
L3L
tg50
I00
S';\x0f\x00\x00\x00\x00\x00\x00;\x0f\x00\x00\x00\x00\x00\x00;\x0f\x00\x00\x00\x00\x00\x00'
tba(lp1858
g15
(g16
(dp1859
g18
g19
(g20
(I0
tS'b'
tRp1860
(I1
(L1L
tg23
I00
(lp1861
g25
atbsg29
NstRp1862
ag15
(g16
(dp1863
g18
g19
(g20
(I0
tS'b'
tRp1864
(I1
(L2L
tg23
I00
(lp1865
g26
ag28
atbsg29
NstRp1866
ag15
(g16
(dp1867
g18
g19
(g20
(I0
tS'b'
tRp1868
(I1
(L1L
tg23
I00
(lp1869
g27
atbsg29
NstRp1870
a(dp1871
g65
(dp1872
g67
g1839
sg68
(lp1873
(dp1874
g71
g72
(I0
I1
I1
tRp1875
sg74
g1848
sa(dp1876
g71
g72
(I1
I5
I2
tRp1877
sg74
g1849
sa(dp1878
g71
g72
(I2
I3
I1
tRp1879
sg74
g1857
sasstbsbag2
(g3
g4
NtRp1880
(dp1881
g7
g8
sg9
g10
sg11
g2
(g12
g4
NtRp1882
((lp1883
g30
ag15
(g16
(dp1884
g18
g19
(g20
(I0
tS'b'
tRp1885
(I1
(L3L
tg23
I00
(lp1886
S'184266'
p1887
aS'184268'
p1888
aS'184299'
p1889
atbsg29
NstRp1890
a(lp1891
g19
(g20
(I0
tS'b'
tRp1892
(I1
(L1L
L3L
tg40
I00
S'\x00\x00\x00\x00\x00\x00\xf0?\x00\x00\x00\x00\x00\x00\xf0?\x00\x00\x00\x00\x00\x00\xf0?'
tbag19
(g20
(I0
tS'b'
tRp1893
(I1
(L2L
L3L
tg23
I00
(lp1894
V[INFO] mqm-pa-mapper-test-impl ........................... SKIPPED
p1895
aV[INFO] test-box-ci-integration ........................... SKIPPED
p1896
aV[INFO] ui-automation-framework ........................... SKIPPED
p1897
aS'AVQD9fmvePvB1HupEiKf'
p1898
aS'AVQD9fmvePvB1HupEiKf'
p1899
aS'AVQD9fmvePvB1HupEiKf'
p1900
atbag19
(g20
(I0
tS'b'
tRp1901
(I1
(L1L
L3L
tg50
I00
S'\x81\x0f\x00\x00\x00\x00\x00\x00\x81\x0f\x00\x00\x00\x00\x00\x00\x81\x0f\x00\x00\x00\x00\x00\x00'
tba(lp1902
g15
(g16
(dp1903
g18
g19
(g20
(I0
tS'b'
tRp1904
(I1
(L1L
tg23
I00
(lp1905
g25
atbsg29
NstRp1906
ag15
(g16
(dp1907
g18
g19
(g20
(I0
tS'b'
tRp1908
(I1
(L2L
tg23
I00
(lp1909
g26
ag28
atbsg29
NstRp1910
ag15
(g16
(dp1911
g18
g19
(g20
(I0
tS'b'
tRp1912
(I1
(L1L
tg23
I00
(lp1913
g27
atbsg29
NstRp1914
a(dp1915
g65
(dp1916
g67
g1883
sg68
(lp1917
(dp1918
g71
g72
(I0
I1
I1
tRp1919
sg74
g1892
sa(dp1920
g71
g72
(I1
I5
I2
tRp1921
sg74
g1893
sa(dp1922
g71
g72
(I2
I3
I1
tRp1923
sg74
g1901
sasstbsbag2
(g3
g4
NtRp1924
(dp1925
g7
g8
sg9
g10
sg11
g2
(g12
g4
NtRp1926
((lp1927
g30
ag15
(g16
(dp1928
g18
g19
(g20
(I0
tS'b'
tRp1929
(I1
(L3L
tg23
I00
(lp1930
S'184337'
p1931
aS'5418920'
p1932
aS'5518919'
p1933
atbsg29
NstRp1934
a(lp1935
g19
(g20
(I0
tS'b'
tRp1936
(I1
(L1L
L3L
tg40
I00
S'\x00\x00\x00\x00\x00\x00\xf0?\x00\x00\x00\x00\x00\x00\xf0?\x00\x00\x00\x00\x00\x00\xf0?'
tbag19
(g20
(I0
tS'b'
tRp1937
(I1
(L2L
L3L
tg23
I00
(lp1938
Vat org.apache.maven.lifecycle.internal.LifecycleThreadedBuilder$1.call(LifecycleThreadedBuilder.java:167)
p1939
aVat org.apache.maven.lifecycle.internal.LifecycleThreadedBuilder$1.call(LifecycleThreadedBuilder.java:167)
p1940
aVat org.apache.maven.lifecycle.internal.LifecycleThreadedBuilder$1.call(LifecycleThreadedBuilder.java:167)
p1941
aS'AVQD9fmvePvB1HupEiKf'
p1942
aS'AVQFHq9cePvB1HupEiPK'
p1943
aS'AVQFJXM4ePvB1HupEiPS'
p1944
atbag19
(g20
(I0
tS'b'
tRp1945
(I1
(L1L
L3L
tg50
I00
S'\xc6\x0f\x00\x00\x00\x00\x00\x00\xc6\x0f\x00\x00\x00\x00\x00\x00\xc6\x0f\x00\x00\x00\x00\x00\x00'
tba(lp1946
g15
(g16
(dp1947
g18
g19
(g20
(I0
tS'b'
tRp1948
(I1
(L1L
tg23
I00
(lp1949
g25
atbsg29
NstRp1950
ag15
(g16
(dp1951
g18
g19
(g20
(I0
tS'b'
tRp1952
(I1
(L2L
tg23
I00
(lp1953
g26
ag28
atbsg29
NstRp1954
ag15
(g16
(dp1955
g18
g19
(g20
(I0
tS'b'
tRp1956
(I1
(L1L
tg23
I00
(lp1957
g27
atbsg29
NstRp1958
a(dp1959
g65
(dp1960
g67
g1927
sg68
(lp1961
(dp1962
g71
g72
(I0
I1
I1
tRp1963
sg74
g1936
sa(dp1964
g71
g72
(I1
I5
I2
tRp1965
sg74
g1937
sa(dp1966
g71
g72
(I2
I3
I1
tRp1967
sg74
g1945
sasstbsbag2
(g3
g4
NtRp1968
(dp1969
g7
g8
sg9
g10
sg11
g2
(g12
g4
NtRp1970
((lp1971
g30
ag15
(g16
(dp1972
g18
g19
(g20
(I0
tS'b'
tRp1973
(I1
(L3L
tg23
I00
(lp1974
S'184202'
p1975
aS'184225'
p1976
aS'184270'
p1977
atbsg29
NstRp1978
a(lp1979
g19
(g20
(I0
tS'b'
tRp1980
(I1
(L1L
L3L
tg40
I00
S'\x00\x00\x00\x00\x00\x00\xf0?\x00\x00\x00\x00\x00\x00\xf0?\x00\x00\x00\x00\x00\x00\xf0?'
tbag19
(g20
(I0
tS'b'
tRp1981
(I1
(L2L
L3L
tg23
I00
(lp1982
V[INFO] mqm-rest-infra-api ................................ SKIPPED
p1983
aV[INFO] mqm-trend-sync-api ................................ SKIPPED
p1984
aV[INFO] mqm-reporting-impl ................................ SKIPPED
p1985
aS'AVQD9fmvePvB1HupEiKf'
p1986
aS'AVQD9fmvePvB1HupEiKf'
p1987
aS'AVQD9fmvePvB1HupEiKf'
p1988
atbag19
(g20
(I0
tS'b'
tRp1989
(I1
(L1L
L3L
tg50
I00
S'\xef\x0f\x00\x00\x00\x00\x00\x00\xef\x0f\x00\x00\x00\x00\x00\x00\xef\x0f\x00\x00\x00\x00\x00\x00'
tba(lp1990
g15
(g16
(dp1991
g18
g19
(g20
(I0
tS'b'
tRp1992
(I1
(L1L
tg23
I00
(lp1993
g25
atbsg29
NstRp1994
ag15
(g16
(dp1995
g18
g19
(g20
(I0
tS'b'
tRp1996
(I1
(L2L
tg23
I00
(lp1997
g26
ag28
atbsg29
NstRp1998
ag15
(g16
(dp1999
g18
g19
(g20
(I0
tS'b'
tRp2000
(I1
(L1L
tg23
I00
(lp2001
g27
atbsg29
NstRp2002
a(dp2003
g65
(dp2004
g67
g1971
sg68
(lp2005
(dp2006
g71
g72
(I0
I1
I1
tRp2007
sg74
g1980
sa(dp2008
g71
g72
(I1
I5
I2
tRp2009
sg74
g1981
sa(dp2010
g71
g72
(I2
I3
I1
tRp2011
sg74
g1989
sasstbsbag2
(g3
g4
NtRp2012
(dp2013
g7
g8
sg9
g10
sg11
g2
(g12
g4
NtRp2014
((lp2015
g30
ag15
(g16
(dp2016
g18
g19
(g20
(I0
tS'b'
tRp2017
(I1
(L3L
tg23
I00
(lp2018
S'184213'
p2019
aS'184229'
p2020
aS'184241'
p2021
atbsg29
NstRp2022
a(lp2023
g19
(g20
(I0
tS'b'
tRp2024
(I1
(L1L
L3L
tg40
I00
S'\x00\x00\x00\x00\x00\x00\xf0?\x00\x00\x00\x00\x00\x00\xf0?\x00\x00\x00\x00\x00\x00\xf0?'
tbag19
(g20
(I0
tS'b'
tRp2025
(I1
(L2L
L3L
tg23
I00
(lp2026
V[INFO] test-box-api ...................................... SKIPPED
p2027
aV[INFO] mqm-sync-api ...................................... SKIPPED
p2028
aV[INFO] test-box-dal ...................................... SKIPPED
p2029
aS'AVQD9fmvePvB1HupEiKf'
p2030
aS'AVQD9fmvePvB1HupEiKf'
p2031
aS'AVQD9fmvePvB1HupEiKf'
p2032
atbag19
(g20
(I0
tS'b'
tRp2033
(I1
(L1L
L3L
tg50
I00
S'\x04\x10\x00\x00\x00\x00\x00\x00\x04\x10\x00\x00\x00\x00\x00\x00\x04\x10\x00\x00\x00\x00\x00\x00'
tba(lp2034
g15
(g16
(dp2035
g18
g19
(g20
(I0
tS'b'
tRp2036
(I1
(L1L
tg23
I00
(lp2037
g25
atbsg29
NstRp2038
ag15
(g16
(dp2039
g18
g19
(g20
(I0
tS'b'
tRp2040
(I1
(L2L
tg23
I00
(lp2041
g26
ag28
atbsg29
NstRp2042
ag15
(g16
(dp2043
g18
g19
(g20
(I0
tS'b'
tRp2044
(I1
(L1L
tg23
I00
(lp2045
g27
atbsg29
NstRp2046
a(dp2047
g65
(dp2048
g67
g2015
sg68
(lp2049
(dp2050
g71
g72
(I0
I1
I1
tRp2051
sg74
g2024
sa(dp2052
g71
g72
(I1
I5
I2
tRp2053
sg74
g2025
sa(dp2054
g71
g72
(I2
I3
I1
tRp2055
sg74
g2033
sasstbsbag2
(g3
g4
NtRp2056
(dp2057
g7
g8
sg9
g10
sg11
g2
(g12
g4
NtRp2058
((lp2059
g30
ag15
(g16
(dp2060
g18
g19
(g20
(I0
tS'b'
tRp2061
(I1
(L2L
tg23
I00
(lp2062
S'5318723'
p2063
aS'5418695'
p2064
atbsg29
NstRp2065
a(lp2066
g19
(g20
(I0
tS'b'
tRp2067
(I1
(L1L
L2L
tg40
I00
S'\x00\x00\x00\x00\x00\x00\xf0?\x00\x00\x00\x00\x00\x00\xf0?'
tbag19
(g20
(I0
tS'b'
tRp2068
(I1
(L2L
L2L
tg23
I00
(lp2069
V15 | var _this = this;
p2070
aV15 | var _this = this;
p2071
aS'AVQFDr4YePvB1HupEiO1'
p2072
aS'AVQFHq9cePvB1HupEiPK'
p2073
atbag19
(g20
(I0
tS'b'
tRp2074
(I1
(L1L
L2L
tg50
I00
S'\x1f\x10\x00\x00\x00\x00\x00\x00\x1f\x10\x00\x00\x00\x00\x00\x00'
tba(lp2075
g15
(g16
(dp2076
g18
g19
(g20
(I0
tS'b'
tRp2077
(I1
(L1L
tg23
I00
(lp2078
g25
atbsg29
NstRp2079
ag15
(g16
(dp2080
g18
g19
(g20
(I0
tS'b'
tRp2081
(I1
(L2L
tg23
I00
(lp2082
g26
ag28
atbsg29
NstRp2083
ag15
(g16
(dp2084
g18
g19
(g20
(I0
tS'b'
tRp2085
(I1
(L1L
tg23
I00
(lp2086
g27
atbsg29
NstRp2087
a(dp2088
g65
(dp2089
g67
g2059
sg68
(lp2090
(dp2091
g71
g72
(I0
I1
I1
tRp2092
sg74
g2067
sa(dp2093
g71
g72
(I1
I5
I2
tRp2094
sg74
g2068
sa(dp2095
g71
g72
(I2
I3
I1
tRp2096
sg74
g2074
sasstbsbag2
(g3
g4
NtRp2097
(dp2098
g7
g8
sg9
g10
sg11
g2
(g12
g4
NtRp2099
((lp2100
g30
ag15
(g16
(dp2101
g18
g19
(g20
(I0
tS'b'
tRp2102
(I1
(L3L
tg23
I00
(lp2103
S'184238'
p2104
aS'184250'
p2105
aS'184251'
p2106
atbsg29
NstRp2107
a(lp2108
g19
(g20
(I0
tS'b'
tRp2109
(I1
(L1L
L3L
tg40
I00
S'\x00\x00\x00\x00\x00\x00\xf0?\x00\x00\x00\x00\x00\x00\xf0?\x00\x00\x00\x00\x00\x00\xf0?'
tbag19
(g20
(I0
tS'b'
tRp2110
(I1
(L2L
L3L
tg23
I00
(lp2111
V[INFO] mqm-ps-schema-management-impl ..................... SKIPPED
p2112
aV[INFO] mqm-distributed-messaging-api ..................... SKIPPED
p2113
aV[INFO] mqm-ps-platform-services-impl ..................... SKIPPED
p2114
aS'AVQD9fmvePvB1HupEiKf'
p2115
aS'AVQD9fmvePvB1HupEiKf'
p2116
aS'AVQD9fmvePvB1HupEiKf'
p2117
atbag19
(g20
(I0
tS'b'
tRp2118
(I1
(L1L
L3L
tg50
I00
S'\xbd\x10\x00\x00\x00\x00\x00\x00\xbd\x10\x00\x00\x00\x00\x00\x00\xbd\x10\x00\x00\x00\x00\x00\x00'
tba(lp2119
g15
(g16
(dp2120
g18
g19
(g20
(I0
tS'b'
tRp2121
(I1
(L1L
tg23
I00
(lp2122
g25
atbsg29
NstRp2123
ag15
(g16
(dp2124
g18
g19
(g20
(I0
tS'b'
tRp2125
(I1
(L2L
tg23
I00
(lp2126
g26
ag28
atbsg29
NstRp2127
ag15
(g16
(dp2128
g18
g19
(g20
(I0
tS'b'
tRp2129
(I1
(L1L
tg23
I00
(lp2130
g27
atbsg29
NstRp2131
a(dp2132
g65
(dp2133
g67
g2100
sg68
(lp2134
(dp2135
g71
g72
(I0
I1
I1
tRp2136
sg74
g2109
sa(dp2137
g71
g72
(I1
I5
I2
tRp2138
sg74
g2110
sa(dp2139
g71
g72
(I2
I3
I1
tRp2140
sg74
g2118
sasstbsbag2
(g3
g4
NtRp2141
(dp2142
g7
g8
sg9
g10
sg11
g2
(g12
g4
NtRp2143
((lp2144
g30
ag15
(g16
(dp2145
g18
g19
(g20
(I0
tS'b'
tRp2146
(I1
(L2L
tg23
I00
(lp2147
S'184190'
p2148
aS'184265'
p2149
atbsg29
NstRp2150
a(lp2151
g19
(g20
(I0
tS'b'
tRp2152
(I1
(L1L
L2L
tg40
I00
S'\x00\x00\x00\x00\x00\x00\xf0?\x00\x00\x00\x00\x00\x00\xf0?'
tbag19
(g20
(I0
tS'b'
tRp2153
(I1
(L2L
L2L
tg23
I00
(lp2154
V[INFO] mqm-analytics-common-api .......................... SKIPPED
p2155
aV[INFO] mqm-tests-execution-impl .......................... SKIPPED
p2156
aS'AVQD9fmvePvB1HupEiKf'
p2157
aS'AVQD9fmvePvB1HupEiKf'
p2158
atbag19
(g20
(I0
tS'b'
tRp2159
(I1
(L1L
L2L
tg50
I00
S'\xd6\x10\x00\x00\x00\x00\x00\x00\xd6\x10\x00\x00\x00\x00\x00\x00'
tba(lp2160
g15
(g16
(dp2161
g18
g19
(g20
(I0
tS'b'
tRp2162
(I1
(L1L
tg23
I00
(lp2163
g25
atbsg29
NstRp2164
ag15
(g16
(dp2165
g18
g19
(g20
(I0
tS'b'
tRp2166
(I1
(L2L
tg23
I00
(lp2167
g26
ag28
atbsg29
NstRp2168
ag15
(g16
(dp2169
g18
g19
(g20
(I0
tS'b'
tRp2170
(I1
(L1L
tg23
I00
(lp2171
g27
atbsg29
NstRp2172
a(dp2173
g65
(dp2174
g67
g2144
sg68
(lp2175
(dp2176
g71
g72
(I0
I1
I1
tRp2177
sg74
g2152
sa(dp2178
g71
g72
(I1
I5
I2
tRp2179
sg74
g2153
sa(dp2180
g71
g72
(I2
I3
I1
tRp2181
sg74
g2159
sasstbsbag2
(g3
g4
NtRp2182
(dp2183
g7
g8
sg9
g10
sg11
g2
(g12
g4
NtRp2184
((lp2185
g30
ag15
(g16
(dp2186
g18
g19
(g20
(I0
tS'b'
tRp2187
(I1
(L3L
tg23
I00
(lp2188
S'5318981'
p2189
aS'5418953'
p2190
aS'5518952'
p2191
atbsg29
NstRp2192
a(lp2193
g19
(g20
(I0
tS'b'
tRp2194
(I1
(L1L
L3L
tg40
I00
S'\x00\x00\x00\x00\x00\x00\xf0?\x00\x00\x00\x00\x00\x00\xf0?\x00\x00\x00\x00\x00\x00\xf0?'
tbag19
(g20
(I0
tS'b'
tRp2195
(I1
(L2L
L3L
tg23
I00
(lp2196
V[ERROR] [Help 1] http://cwiki.apache.org/confluence/display/MAVEN/MojoExecutionException
p2197
aV[ERROR] [Help 1] http://cwiki.apache.org/confluence/display/MAVEN/MojoExecutionException
p2198
aV[ERROR] [Help 1] http://cwiki.apache.org/confluence/display/MAVEN/MojoExecutionException
p2199
aS'AVQFDr4YePvB1HupEiO1'
p2200
aS'AVQFHq9cePvB1HupEiPK'
p2201
aS'AVQFJXM4ePvB1HupEiPS'
p2202
atbag19
(g20
(I0
tS'b'
tRp2203
(I1
(L1L
L3L
tg50
I00
S'\xe8\x10\x00\x00\x00\x00\x00\x00\xe8\x10\x00\x00\x00\x00\x00\x00\xe8\x10\x00\x00\x00\x00\x00\x00'
tba(lp2204
g15
(g16
(dp2205
g18
g19
(g20
(I0
tS'b'
tRp2206
(I1
(L1L
tg23
I00
(lp2207
g25
atbsg29
NstRp2208
ag15
(g16
(dp2209
g18
g19
(g20
(I0
tS'b'
tRp2210
(I1
(L2L
tg23
I00
(lp2211
g26
ag28
atbsg29
NstRp2212
ag15
(g16
(dp2213
g18
g19
(g20
(I0
tS'b'
tRp2214
(I1
(L1L
tg23
I00
(lp2215
g27
atbsg29
NstRp2216
a(dp2217
g65
(dp2218
g67
g2185
sg68
(lp2219
(dp2220
g71
g72
(I0
I1
I1
tRp2221
sg74
g2194
sa(dp2222
g71
g72
(I1
I5
I2
tRp2223
sg74
g2195
sa(dp2224
g71
g72
(I2
I3
I1
tRp2225
sg74
g2203
sasstbsbag2
(g3
g4
NtRp2226
(dp2227
g7
g8
sg9
g10
sg11
g2
(g12
g4
NtRp2228
((lp2229
g30
ag15
(g16
(dp2230
g18
g19
(g20
(I0
tS'b'
tRp2231
(I1
(L2L
tg23
I00
(lp2232
S'5318972'
p2233
aS'5418944'
p2234
atbsg29
NstRp2235
a(lp2236
g19
(g20
(I0
tS'b'
tRp2237
(I1
(L1L
L2L
tg40
I00
S'\x00\x00\x00\x00\x00\x00\xf0?\x00\x00\x00\x00\x00\x00\xf0?'
tbag19
(g20
(I0
tS'b'
tRp2238
(I1
(L2L
L2L
tg23
I00
(lp2239
Vat org.apache.commons.exec.DefaultExecutor.executeInternal(DefaultExecutor.java:377)
p2240
aVat org.apache.commons.exec.DefaultExecutor.executeInternal(DefaultExecutor.java:377)
p2241
aS'AVQFDr4YePvB1HupEiO1'
p2242
aS'AVQFHq9cePvB1HupEiPK'
p2243
atbag19
(g20
(I0
tS'b'
tRp2244
(I1
(L1L
L2L
tg50
I00
S'\xff\x10\x00\x00\x00\x00\x00\x00\xff\x10\x00\x00\x00\x00\x00\x00'
tba(lp2245
g15
(g16
(dp2246
g18
g19
(g20
(I0
tS'b'
tRp2247
(I1
(L1L
tg23
I00
(lp2248
g25
atbsg29
NstRp2249
ag15
(g16
(dp2250
g18
g19
(g20
(I0
tS'b'
tRp2251
(I1
(L2L
tg23
I00
(lp2252
g26
ag28
atbsg29
NstRp2253
ag15
(g16
(dp2254
g18
g19
(g20
(I0
tS'b'
tRp2255
(I1
(L1L
tg23
I00
(lp2256
g27
atbsg29
NstRp2257
a(dp2258
g65
(dp2259
g67
g2229
sg68
(lp2260
(dp2261
g71
g72
(I0
I1
I1
tRp2262
sg74
g2237
sa(dp2263
g71
g72
(I1
I5
I2
tRp2264
sg74
g2238
sa(dp2265
g71
g72
(I2
I3
I1
tRp2266
sg74
g2244
sasstbsbag2
(g3
g4
NtRp2267
(dp2268
g7
g8
sg9
g10
sg11
g2
(g12
g4
NtRp2269
((lp2270
g30
ag15
(g16
(dp2271
g18
g19
(g20
(I0
tS'b'
tRp2272
(I1
(L2L
tg23
I00
(lp2273
S'5318955'
p2274
aS'5518926'
p2275
atbsg29
NstRp2276
a(lp2277
g19
(g20
(I0
tS'b'
tRp2278
(I1
(L1L
L2L
tg40
I00
S'\x00\x00\x00\x00\x00\x00\xf0?\x00\x00\x00\x00\x00\x00\xf0?'
tbag19
(g20
(I0
tS'b'
tRp2279
(I1
(L2L
L2L
tg23
I00
(lp2280
Vat java.lang.Thread.run(Thread.java:745)
p2281
aVat java.lang.Thread.run(Thread.java:745)
p2282
aS'AVQFDr4YePvB1HupEiO1'
p2283
aS'AVQFJXM4ePvB1HupEiPS'
p2284
atbag19
(g20
(I0
tS'b'
tRp2285
(I1
(L1L
L2L
tg50
I00
S'u\x11\x00\x00\x00\x00\x00\x00u\x11\x00\x00\x00\x00\x00\x00'
tba(lp2286
g15
(g16
(dp2287
g18
g19
(g20
(I0
tS'b'
tRp2288
(I1
(L1L
tg23
I00
(lp2289
g25
atbsg29
NstRp2290
ag15
(g16
(dp2291
g18
g19
(g20
(I0
tS'b'
tRp2292
(I1
(L2L
tg23
I00
(lp2293
g26
ag28
atbsg29
NstRp2294
ag15
(g16
(dp2295
g18
g19
(g20
(I0
tS'b'
tRp2296
(I1
(L1L
tg23
I00
(lp2297
g27
atbsg29
NstRp2298
a(dp2299
g65
(dp2300
g67
g2270
sg68
(lp2301
(dp2302
g71
g72
(I0
I1
I1
tRp2303
sg74
g2278
sa(dp2304
g71
g72
(I1
I5
I2
tRp2305
sg74
g2279
sa(dp2306
g71
g72
(I2
I3
I1
tRp2307
sg74
g2285
sasstbsbag2
(g3
g4
NtRp2308
(dp2309
g7
g8
sg9
g10
sg11
g2
(g12
g4
NtRp2310
((lp2311
g30
ag15
(g16
(dp2312
g18
g19
(g20
(I0
tS'b'
tRp2313
(I1
(L3L
tg23
I00
(lp2314
S'184257'
p2315
aS'184274'
p2316
aS'184279'
p2317
atbsg29
NstRp2318
a(lp2319
g19
(g20
(I0
tS'b'
tRp2320
(I1
(L1L
L3L
tg40
I00
S'\x00\x00\x00\x00\x00\x00\xf0?\x00\x00\x00\x00\x00\x00\xf0?\x00\x00\x00\x00\x00\x00\xf0?'
tbag19
(g20
(I0
tS'b'
tRp2321
(I1
(L2L
L3L
tg23
I00
(lp2322
V[INFO] mqm-ps-business-rules-impl ........................ SKIPPED
p2323
aV[INFO] mqm-query-translation-impl ........................ SKIPPED
p2324
aV[INFO] mqm-app-production-modules ........................ SKIPPED
p2325
aS'AVQD9fmvePvB1HupEiKf'
p2326
aS'AVQD9fmvePvB1HupEiKf'
p2327
aS'AVQD9fmvePvB1HupEiKf'
p2328
atbag19
(g20
(I0
tS'b'
tRp2329
(I1
(L1L
L3L
tg50
I00
S'\xa9\x11\x00\x00\x00\x00\x00\x00\xa9\x11\x00\x00\x00\x00\x00\x00\xa9\x11\x00\x00\x00\x00\x00\x00'
tba(lp2330
g15
(g16
(dp2331
g18
g19
(g20
(I0
tS'b'
tRp2332
(I1
(L1L
tg23
I00
(lp2333
g25
atbsg29
NstRp2334
ag15
(g16
(dp2335
g18
g19
(g20
(I0
tS'b'
tRp2336
(I1
(L2L
tg23
I00
(lp2337
g26
ag28
atbsg29
NstRp2338
ag15
(g16
(dp2339
g18
g19
(g20
(I0
tS'b'
tRp2340
(I1
(L1L
tg23
I00
(lp2341
g27
atbsg29
NstRp2342
a(dp2343
g65
(dp2344
g67
g2311
sg68
(lp2345
(dp2346
g71
g72
(I0
I1
I1
tRp2347
sg74
g2320
sa(dp2348
g71
g72
(I1
I5
I2
tRp2349
sg74
g2321
sa(dp2350
g71
g72
(I2
I3
I1
tRp2351
sg74
g2329
sasstbsbag2
(g3
g4
NtRp2352
(dp2353
g7
g8
sg9
g10
sg11
g2
(g12
g4
NtRp2354
((lp2355
g30
ag15
(g16
(dp2356
g18
g19
(g20
(I0
tS'b'
tRp2357
(I1
(L2L
tg23
I00
(lp2358
S'5318961'
p2359
aS'5418933'
p2360
atbsg29
NstRp2361
a(lp2362
g19
(g20
(I0
tS'b'
tRp2363
(I1
(L1L
L2L
tg40
I00
S'\x00\x00\x00\x00\x00\x00\xf0?\x00\x00\x00\x00\x00\x00\xf0?'
tbag19
(g20
(I0
tS'b'
tRp2364
(I1
(L2L
L2L
tg23
I00
(lp2365
Vat pl.allegro.tdr.gruntmaven.AbstractExecutableMojo.executeInternal(AbstractExecutableMojo.java:86)
p2366
aVat pl.allegro.tdr.gruntmaven.AbstractExecutableMojo.executeInternal(AbstractExecutableMojo.java:86)
p2367
aS'AVQFDr4YePvB1HupEiO1'
p2368
aS'AVQFHq9cePvB1HupEiPK'
p2369
atbag19
(g20
(I0
tS'b'
tRp2370
(I1
(L1L
L2L
tg50
I00
S'\xe5\x11\x00\x00\x00\x00\x00\x00\xe5\x11\x00\x00\x00\x00\x00\x00'
tba(lp2371
g15
(g16
(dp2372
g18
g19
(g20
(I0
tS'b'
tRp2373
(I1
(L1L
tg23
I00
(lp2374
g25
atbsg29
NstRp2375
ag15
(g16
(dp2376
g18
g19
(g20
(I0
tS'b'
tRp2377
(I1
(L2L
tg23
I00
(lp2378
g26
ag28
atbsg29
NstRp2379
ag15
(g16
(dp2380
g18
g19
(g20
(I0
tS'b'
tRp2381
(I1
(L1L
tg23
I00
(lp2382
g27
atbsg29
NstRp2383
a(dp2384
g65
(dp2385
g67
g2355
sg68
(lp2386
(dp2387
g71
g72
(I0
I1
I1
tRp2388
sg74
g2363
sa(dp2389
g71
g72
(I1
I5
I2
tRp2390
sg74
g2364
sa(dp2391
g71
g72
(I2
I3
I1
tRp2392
sg74
g2370
sasstbsbag2
(g3
g4
NtRp2393
(dp2394
g7
g8
sg9
g10
sg11
g2
(g12
g4
NtRp2395
((lp2396
g30
ag15
(g16
(dp2397
g18
g19
(g20
(I0
tS'b'
tRp2398
(I1
(L3L
tg23
I00
(lp2399
S'5318745'
p2400
aS'5418727'
p2401
aS'5518716'
p2402
atbsg29
NstRp2403
a(lp2404
g19
(g20
(I0
tS'b'
tRp2405
(I1
(L1L
L3L
tg40
I00
S'\x00\x00\x00\x00\x00\x00\xf0?\x00\x00\x00\x00\x00\x00\xf0?\x00\x00\x00\x00\x00\x00\xf0?'
tbag19
(g20
(I0
tS'b'
tRp2406
(I1
(L2L
L3L
tg23
I00
(lp2407
VAborted due to warnings.
p2408
aVAborted due to warnings.
p2409
aVAborted due to warnings.
p2410
aS'AVQFDr4YePvB1HupEiO1'
p2411
aS'AVQFHq9cePvB1HupEiPK'
p2412
aS'AVQFJXM4ePvB1HupEiPS'
p2413
atbag19
(g20
(I0
tS'b'
tRp2414
(I1
(L1L
L3L
tg50
I00
S'\x02\x12\x00\x00\x00\x00\x00\x00\x02\x12\x00\x00\x00\x00\x00\x00\x02\x12\x00\x00\x00\x00\x00\x00'
tba(lp2415
g15
(g16
(dp2416
g18
g19
(g20
(I0
tS'b'
tRp2417
(I1
(L1L
tg23
I00
(lp2418
g25
atbsg29
NstRp2419
ag15
(g16
(dp2420
g18
g19
(g20
(I0
tS'b'
tRp2421
(I1
(L2L
tg23
I00
(lp2422
g26
ag28
atbsg29
NstRp2423
ag15
(g16
(dp2424
g18
g19
(g20
(I0
tS'b'
tRp2425
(I1
(L1L
tg23
I00
(lp2426
g27
atbsg29
NstRp2427
a(dp2428
g65
(dp2429
g67
g2396
sg68
(lp2430
(dp2431
g71
g72
(I0
I1
I1
tRp2432
sg74
g2405
sa(dp2433
g71
g72
(I1
I5
I2
tRp2434
sg74
g2406
sa(dp2435
g71
g72
(I2
I3
I1
tRp2436
sg74
g2414
sasstbsbag2
(g3
g4
NtRp2437
(dp2438
g7
g8
sg9
g10
sg11
g2
(g12
g4
NtRp2439
((lp2440
g30
ag15
(g16
(dp2441
g18
g19
(g20
(I0
tS'b'
tRp2442
(I1
(L2L
tg23
I00
(lp2443
S'5318947'
p2444
aS'5418919'
p2445
atbsg29
NstRp2446
a(lp2447
g19
(g20
(I0
tS'b'
tRp2448
(I1
(L1L
L2L
tg40
I00
S'\x00\x00\x00\x00\x00\x00\xf0?\x00\x00\x00\x00\x00\x00\xf0?'
tbag19
(g20
(I0
tS'b'
tRp2449
(I1
(L2L
L2L
tg23
I00
(lp2450
Vat org.apache.maven.lifecycle.internal.LifecycleModuleBuilder.buildProject(LifecycleModuleBuilder.java:84)
p2451
aVat org.apache.maven.lifecycle.internal.LifecycleModuleBuilder.buildProject(LifecycleModuleBuilder.java:84)
p2452
aS'AVQFDr4YePvB1HupEiO1'
p2453
aS'AVQFHq9cePvB1HupEiPK'
p2454
atbag19
(g20
(I0
tS'b'
tRp2455
(I1
(L1L
L2L
tg50
I00
S'\xea\x12\x00\x00\x00\x00\x00\x00\xea\x12\x00\x00\x00\x00\x00\x00'
tba(lp2456
g15
(g16
(dp2457
g18
g19
(g20
(I0
tS'b'
tRp2458
(I1
(L1L
tg23
I00
(lp2459
g25
atbsg29
NstRp2460
ag15
(g16
(dp2461
g18
g19
(g20
(I0
tS'b'
tRp2462
(I1
(L2L
tg23
I00
(lp2463
g26
ag28
atbsg29
NstRp2464
ag15
(g16
(dp2465
g18
g19
(g20
(I0
tS'b'
tRp2466
(I1
(L1L
tg23
I00
(lp2467
g27
atbsg29
NstRp2468
a(dp2469
g65
(dp2470
g67
g2440
sg68
(lp2471
(dp2472
g71
g72
(I0
I1
I1
tRp2473
sg74
g2448
sa(dp2474
g71
g72
(I1
I5
I2
tRp2475
sg74
g2449
sa(dp2476
g71
g72
(I2
I3
I1
tRp2477
sg74
g2455
sasstbsbag2
(g3
g4
NtRp2478
(dp2479
g7
g8
sg9
g10
sg11
g2
(g12
g4
NtRp2480
((lp2481
g30
ag15
(g16
(dp2482
g18
g19
(g20
(I0
tS'b'
tRp2483
(I1
(L2L
tg23
I00
(lp2484
S'5318953'
p2485
aS'5418925'
p2486
atbsg29
NstRp2487
a(lp2488
g19
(g20
(I0
tS'b'
tRp2489
(I1
(L1L
L2L
tg40
I00
S'\x00\x00\x00\x00\x00\x00\xf0?\x00\x00\x00\x00\x00\x00\xf0?'
tbag19
(g20
(I0
tS'b'
tRp2490
(I1
(L2L
L2L
tg23
I00
(lp2491
Vat java.util.concurrent.ThreadPoolExecutor.runWorker(ThreadPoolExecutor.java:1142)
p2492
aVat java.util.concurrent.ThreadPoolExecutor.runWorker(ThreadPoolExecutor.java:1142)
p2493
aS'AVQFDr4YePvB1HupEiO1'
p2494
aS'AVQFHq9cePvB1HupEiPK'
p2495
atbag19
(g20
(I0
tS'b'
tRp2496
(I1
(L1L
L2L
tg50
I00
S'h\x13\x00\x00\x00\x00\x00\x00h\x13\x00\x00\x00\x00\x00\x00'
tba(lp2497
g15
(g16
(dp2498
g18
g19
(g20
(I0
tS'b'
tRp2499
(I1
(L1L
tg23
I00
(lp2500
g25
atbsg29
NstRp2501
ag15
(g16
(dp2502
g18
g19
(g20
(I0
tS'b'
tRp2503
(I1
(L2L
tg23
I00
(lp2504
g26
ag28
atbsg29
NstRp2505
ag15
(g16
(dp2506
g18
g19
(g20
(I0
tS'b'
tRp2507
(I1
(L1L
tg23
I00
(lp2508
g27
atbsg29
NstRp2509
a(dp2510
g65
(dp2511
g67
g2481
sg68
(lp2512
(dp2513
g71
g72
(I0
I1
I1
tRp2514
sg74
g2489
sa(dp2515
g71
g72
(I1
I5
I2
tRp2516
sg74
g2490
sa(dp2517
g71
g72
(I2
I3
I1
tRp2518
sg74
g2496
sasstbsbag2
(g3
g4
NtRp2519
(dp2520
g7
g8
sg9
g10
sg11
g2
(g12
g4
NtRp2521
((lp2522
g30
ag15
(g16
(dp2523
g18
g19
(g20
(I0
tS'b'
tRp2524
(I1
(L2L
tg23
I00
(lp2525
S'5318767'
p2526
aS'5518738'
p2527
atbsg29
NstRp2528
a(lp2529
g19
(g20
(I0
tS'b'
tRp2530
(I1
(L1L
L2L
tg40
I00
S'\x00\x00\x00\x00\x00\x00\xf0?\x00\x00\x00\x00\x00\x00\xf0?'
tbag19
(g20
(I0
tS'b'
tRp2531
(I1
(L2L
L2L
tg23
I00
(lp2532
VDone, but with warnings.
p2533
aVDone, but with warnings.
p2534
aS'AVQFDr4YePvB1HupEiO1'
p2535
aS'AVQFJXM4ePvB1HupEiPS'
p2536
atbag19
(g20
(I0
tS'b'
tRp2537
(I1
(L1L
L2L
tg50
I00
S'o\x13\x00\x00\x00\x00\x00\x00o\x13\x00\x00\x00\x00\x00\x00'
tba(lp2538
g15
(g16
(dp2539
g18
g19
(g20
(I0
tS'b'
tRp2540
(I1
(L1L
tg23
I00
(lp2541
g25
atbsg29
NstRp2542
ag15
(g16
(dp2543
g18
g19
(g20
(I0
tS'b'
tRp2544
(I1
(L2L
tg23
I00
(lp2545
g26
ag28
atbsg29
NstRp2546
ag15
(g16
(dp2547
g18
g19
(g20
(I0
tS'b'
tRp2548
(I1
(L1L
tg23
I00
(lp2549
g27
atbsg29
NstRp2550
a(dp2551
g65
(dp2552
g67
g2522
sg68
(lp2553
(dp2554
g71
g72
(I0
I1
I1
tRp2555
sg74
g2530
sa(dp2556
g71
g72
(I1
I5
I2
tRp2557
sg74
g2531
sa(dp2558
g71
g72
(I2
I3
I1
tRp2559
sg74
g2537
sasstbsbag2
(g3
g4
NtRp2560
(dp2561
g7
g8
sg9
g10
sg11
g2
(g12
g4
NtRp2562
((lp2563
g30
ag15
(g16
(dp2564
g18
g19
(g20
(I0
tS'b'
tRp2565
(I1
(L2L
tg23
I00
(lp2566
S'5318957'
p2567
aS'5518928'
p2568
atbsg29
NstRp2569
a(lp2570
g19
(g20
(I0
tS'b'
tRp2571
(I1
(L1L
L2L
tg40
I00
S'\x00\x00\x00\x00\x00\x00\xf0?\x00\x00\x00\x00\x00\x00\xf0?'
tbag19
(g20
(I0
tS'b'
tRp2572
(I1
(L2L
L2L
tg23
I00
(lp2573
Vat org.twdata.maven.mojoexecutor.MojoExecutor.executeMojoImpl(MojoExecutor.java:174)
p2574
aVat org.twdata.maven.mojoexecutor.MojoExecutor.executeMojoImpl(MojoExecutor.java:174)
p2575
aS'AVQFDr4YePvB1HupEiO1'
p2576
aS'AVQFJXM4ePvB1HupEiPS'
p2577
atbag19
(g20
(I0
tS'b'
tRp2578
(I1
(L1L
L2L
tg50
I00
S'\x89\x13\x00\x00\x00\x00\x00\x00\x89\x13\x00\x00\x00\x00\x00\x00'
tba(lp2579
g15
(g16
(dp2580
g18
g19
(g20
(I0
tS'b'
tRp2581
(I1
(L1L
tg23
I00
(lp2582
g25
atbsg29
NstRp2583
ag15
(g16
(dp2584
g18
g19
(g20
(I0
tS'b'
tRp2585
(I1
(L2L
tg23
I00
(lp2586
g26
ag28
atbsg29
NstRp2587
ag15
(g16
(dp2588
g18
g19
(g20
(I0
tS'b'
tRp2589
(I1
(L1L
tg23
I00
(lp2590
g27
atbsg29
NstRp2591
a(dp2592
g65
(dp2593
g67
g2563
sg68
(lp2594
(dp2595
g71
g72
(I0
I1
I1
tRp2596
sg74
g2571
sa(dp2597
g71
g72
(I1
I5
I2
tRp2598
sg74
g2572
sa(dp2599
g71
g72
(I2
I3
I1
tRp2600
sg74
g2578
sasstbsbag2
(g3
g4
NtRp2601
(dp2602
g7
g8
sg9
g10
sg11
g2
(g12
g4
NtRp2603
((lp2604
g30
ag15
(g16
(dp2605
g18
g19
(g20
(I0
tS'b'
tRp2606
(I1
(L3L
tg23
I00
(lp2607
S'184188'
p2608
aS'184280'
p2609
aS'184284'
p2610
atbsg29
NstRp2611
a(lp2612
g19
(g20
(I0
tS'b'
tRp2613
(I1
(L1L
L3L
tg40
I00
S'\x00\x00\x00\x00\x00\x00\xf0?\x00\x00\x00\x00\x00\x00\xf0?\x00\x00\x00\x00\x00\x00\xf0?'
tbag19
(g20
(I0
tS'b'
tRp2614
(I1
(L2L
L3L
tg23
I00
(lp2615
V[INFO] mqm-distributed-cache-api ......................... SKIPPED
p2616
aV[INFO] mqm-generate-entities-api ......................... SKIPPED
p2617
aV[INFO] mqm-schema-resources-impl ......................... SKIPPED
p2618
aS'AVQD9fmvePvB1HupEiKf'
p2619
aS'AVQD9fmvePvB1HupEiKf'
p2620
aS'AVQD9fmvePvB1HupEiKf'
p2621
atbag19
(g20
(I0
tS'b'
tRp2622
(I1
(L1L
L3L
tg50
I00
S'V\x15\x00\x00\x00\x00\x00\x00V\x15\x00\x00\x00\x00\x00\x00V\x15\x00\x00\x00\x00\x00\x00'
tba(lp2623
g15
(g16
(dp2624
g18
g19
(g20
(I0
tS'b'
tRp2625
(I1
(L1L
tg23
I00
(lp2626
g25
atbsg29
NstRp2627
ag15
(g16
(dp2628
g18
g19
(g20
(I0
tS'b'
tRp2629
(I1
(L2L
tg23
I00
(lp2630
g26
ag28
atbsg29
NstRp2631
ag15
(g16
(dp2632
g18
g19
(g20
(I0
tS'b'
tRp2633
(I1
(L1L
tg23
I00
(lp2634
g27
atbsg29
NstRp2635
a(dp2636
g65
(dp2637
g67
g2604
sg68
(lp2638
(dp2639
g71
g72
(I0
I1
I1
tRp2640
sg74
g2613
sa(dp2641
g71
g72
(I1
I5
I2
tRp2642
sg74
g2614
sa(dp2643
g71
g72
(I2
I3
I1
tRp2644
sg74
g2622
sasstbsbag2
(g3
g4
NtRp2645
(dp2646
g7
g8
sg9
g10
sg11
g2
(g12
g4
NtRp2647
((lp2648
g30
ag15
(g16
(dp2649
g18
g19
(g20
(I0
tS'b'
tRp2650
(I1
(L2L
tg23
I00
(lp2651
S'5318735'
p2652
aS'5518706'
p2653
atbsg29
NstRp2654
a(lp2655
g19
(g20
(I0
tS'b'
tRp2656
(I1
(L1L
L2L
tg40
I00
S'\x00\x00\x00\x00\x00\x00\xf0?\x00\x00\x00\x00\x00\x00\xf0?'
tbag19
(g20
(I0
tS'b'
tRp2657
(I1
(L2L
L2L
tg23
I00
(lp2658
V32 | var html = element.html();
p2659
aV32 | var html = element.html();
p2660
aS'AVQFDr4YePvB1HupEiO1'
p2661
aS'AVQFJXM4ePvB1HupEiPS'
p2662
atbag19
(g20
(I0
tS'b'
tRp2663
(I1
(L1L
L2L
tg50
I00
S'\x0c\x17\x00\x00\x00\x00\x00\x00\x0c\x17\x00\x00\x00\x00\x00\x00'
tba(lp2664
g15
(g16
(dp2665
g18
g19
(g20
(I0
tS'b'
tRp2666
(I1
(L1L
tg23
I00
(lp2667
g25
atbsg29
NstRp2668
ag15
(g16
(dp2669
g18
g19
(g20
(I0
tS'b'
tRp2670
(I1
(L2L
tg23
I00
(lp2671
g26
ag28
atbsg29
NstRp2672
ag15
(g16
(dp2673
g18
g19
(g20
(I0
tS'b'
tRp2674
(I1
(L1L
tg23
I00
(lp2675
g27
atbsg29
NstRp2676
a(dp2677
g65
(dp2678
g67
g2648
sg68
(lp2679
(dp2680
g71
g72
(I0
I1
I1
tRp2681
sg74
g2656
sa(dp2682
g71
g72
(I1
I5
I2
tRp2683
sg74
g2657
sa(dp2684
g71
g72
(I2
I3
I1
tRp2685
sg74
g2663
sasstbsba.